(dp0
I0
V\u4e00
p1
sI1
V\u4e01
p2
sI2
V\u4e03
p3
sI3
V\u4e07
p4
sI4
V\u4e08
p5
sI5
V\u4e09
p6
sI6
V\u4e0a
p7
sI7
V\u4e0b
p8
sI8
V\u4e0d
p9
sI9
V\u4e0e
p10
sI10
V\u4e11
p11
sI11
V\u4e13
p12
sI12
V\u4e14
p13
sI13
V\u4e16
p14
sI14
V\u4e18
p15
sI15
V\u4e19
p16
sI16
V\u4e1a
p17
sI17
V\u4e1b
p18
sI18
V\u4e1c
p19
sI19
V\u4e1d
p20
sI20
V\u4e22
p21
sI21
V\u4e24
p22
sI22
V\u4e25
p23
sI23
V\u4e27
p24
sI24
V\u4e2a
p25
sI25
V\u4e2b
p26
sI26
V\u4e2d
p27
sI27
V\u4e30
p28
sI28
V\u4e32
p29
sI29
V\u4e34
p30
sI30
V\u4e38
p31
sI31
V\u4e39
p32
sI32
V\u4e3a
p33
sI33
V\u4e3b
p34
sI34
V\u4e3d
p35
sI35
V\u4e3e
p36
sI36
V\u4e43
p37
sI37
V\u4e45
p38
sI38
V\u4e48
p39
sI39
V\u4e49
p40
sI40
V\u4e4b
p41
sI41
V\u4e4c
p42
sI42
V\u4e4d
p43
sI43
V\u4e4e
p44
sI44
V\u4e4f
p45
sI45
V\u4e50
p46
sI46
V\u4e52
p47
sI47
V\u4e53
p48
sI48
V\u4e54
p49
sI49
V\u4e56
p50
sI50
V\u4e58
p51
sI51
V\u4e59
p52
sI52
V\u4e5d
p53
sI53
V\u4e5e
p54
sI54
V\u4e5f
p55
sI55
V\u4e60
p56
sI56
V\u4e61
p57
sI57
V\u4e66
p58
sI58
V\u4e70
p59
sI59
V\u4e71
p60
sI60
V\u4e73
p61
sI61
V\u4e7e
p62
sI62
V\u4e86
p63
sI63
V\u4e88
p64
sI64
V\u4e89
p65
sI65
V\u4e8b
p66
sI66
V\u4e8c
p67
sI67
V\u4e8e
p68
sI68
V\u4e8f
p69
sI69
V\u4e91
p70
sI70
V\u4e92
p71
sI71
V\u4e94
p72
sI72
V\u4e95
p73
sI73
V\u4e9a
p74
sI74
V\u4e9b
p75
sI75
V\u4ea1
p76
sI76
V\u4ea2
p77
sI77
V\u4ea4
p78
sI78
V\u4ea5
p79
sI79
V\u4ea6
p80
sI80
V\u4ea7
p81
sI81
V\u4ea8
p82
sI82
V\u4ea9
p83
sI83
V\u4eab
p84
sI84
V\u4eac
p85
sI85
V\u4ead
p86
sI86
V\u4eae
p87
sI87
V\u4eb2
p88
sI88
V\u4eba
p89
sI89
V\u4ebf
p90
sI90
V\u4ec0
p91
sI91
V\u4ec1
p92
sI92
V\u4ec5
p93
sI93
V\u4ec6
p94
sI94
V\u4ec7
p95
sI95
V\u4eca
p96
sI96
V\u4ecb
p97
sI97
V\u4ecd
p98
sI98
V\u4ece
p99
sI99
V\u4ed1
p100
sI100
V\u4ed3
p101
sI101
V\u4ed4
p102
sI102
V\u4ed5
p103
sI103
V\u4ed6
p104
sI104
V\u4ed7
p105
sI105
V\u4ed8
p106
sI106
V\u4ed9
p107
sI107
V\u4edf
p108
sI108
V\u4ee3
p109
sI109
V\u4ee4
p110
sI110
V\u4ee5
p111
sI111
V\u4eea
p112
sI112
V\u4eec
p113
sI113
V\u4ef0
p114
sI114
V\u4ef2
p115
sI115
V\u4ef6
p116
sI116
V\u4ef7
p117
sI117
V\u4efb
p118
sI118
V\u4efd
p119
sI119
V\u4eff
p120
sI120
V\u4f01
p121
sI121
V\u4f0a
p122
sI122
V\u4f0d
p123
sI123
V\u4f0e
p124
sI124
V\u4f0f
p125
sI125
V\u4f10
p126
sI126
V\u4f11
p127
sI127
V\u4f17
p128
sI128
V\u4f18
p129
sI129
V\u4f19
p130
sI130
V\u4f1a
p131
sI131
V\u4f1e
p132
sI132
V\u4f1f
p133
sI133
V\u4f20
p134
sI134
V\u4f24
p135
sI135
V\u4f26
p136
sI136
V\u4f2a
p137
sI137
V\u4f2f
p138
sI138
V\u4f30
p139
sI139
V\u4f34
p140
sI140
V\u4f36
p141
sI141
V\u4f38
p142
sI142
V\u4f3a
p143
sI143
V\u4f3c
p144
sI144
V\u4f43
p145
sI145
V\u4f46
p146
sI146
V\u4f4d
p147
sI147
V\u4f4e
p148
sI148
V\u4f4f
p149
sI149
V\u4f50
p150
sI150
V\u4f51
p151
sI151
V\u4f53
p152
sI152
V\u4f55
p153
sI153
V\u4f59
p154
sI154
V\u4f5b
p155
sI155
V\u4f5c
p156
sI156
V\u4f60
p157
sI157
V\u4f63
p158
sI158
V\u4f69
p159
sI159
V\u4f6c
p160
sI160
V\u4f6f
p161
sI161
V\u4f70
p162
sI162
V\u4f73
p163
sI163
V\u4f7f
p164
sI164
V\u4f84
p165
sI165
V\u4f88
p166
sI166
V\u4f8b
p167
sI167
V\u4f8d
p168
sI168
V\u4f97
p169
sI169
V\u4f9b
p170
sI170
V\u4f9d
p171
sI171
V\u4fa0
p172
sI172
V\u4fa3
p173
sI173
V\u4fa5
p174
sI174
V\u4fa6
p175
sI175
V\u4fa7
p176
sI176
V\u4fa8
p177
sI177
V\u4fa9
p178
sI178
V\u4fae
p179
sI179
V\u4faf
p180
sI180
V\u4fb5
p181
sI181
V\u4fbf
p182
sI182
V\u4fc3
p183
sI183
V\u4fc4
p184
sI184
V\u4fca
p185
sI185
V\u4fcf
p186
sI186
V\u4fd0
p187
sI187
V\u4fd7
p188
sI188
V\u4fd8
p189
sI189
V\u4fdd
p190
sI190
V\u4fde
p191
sI191
V\u4fe1
p192
sI192
V\u4fe9
p193
sI193
V\u4fed
p194
sI194
V\u4fee
p195
sI195
V\u4fef
p196
sI196
V\u4ff1
p197
sI197
V\u4ffa
p198
sI198
V\u500d
p199
sI199
V\u5012
p200
sI200
V\u5014
p201
sI201
V\u5018
p202
sI202
V\u5019
p203
sI203
V\u501a
p204
sI204
V\u501f
p205
sI205
V\u5021
p206
sI206
V\u5026
p207
sI207
V\u502a
p208
sI208
V\u503a
p209
sI209
V\u503c
p210
sI210
V\u503e
p211
sI211
V\u5047
p212
sI212
V\u504f
p213
sI213
V\u505a
p214
sI214
V\u505c
p215
sI215
V\u5065
p216
sI216
V\u5076
p217
sI217
V\u5077
p218
sI218
V\u507f
p219
sI219
V\u5080
p220
sI220
V\u5085
p221
sI221
V\u5088
p222
sI222
V\u508d
p223
sI223
V\u50a3
p224
sI224
V\u50a8
p225
sI225
V\u50ac
p226
sI226
V\u50b2
p227
sI227
V\u50bb
p228
sI228
V\u50cf
p229
sI229
V\u50da
p230
sI230
V\u50e7
p231
sI231
V\u50f3
p232
sI232
V\u50f5
p233
sI233
V\u50fb
p234
sI234
V\u5112
p235
sI235
V\u5121
p236
sI236
V\u513f
p237
sI237
V\u5141
p238
sI238
V\u5143
p239
sI239
V\u5144
p240
sI240
V\u5145
p241
sI241
V\u5146
p242
sI242
V\u5148
p243
sI243
V\u5149
p244
sI244
V\u514b
p245
sI245
V\u514d
p246
sI246
V\u5151
p247
sI247
V\u5154
p248
sI248
V\u515a
p249
sI249
V\u515c
p250
sI250
V\u5162
p251
sI251
V\u5165
p252
sI252
V\u5168
p253
sI253
V\u516b
p254
sI254
V\u516c
p255
sI255
V\u516d
p256
sI256
V\u5170
p257
sI257
V\u5171
p258
sI258
V\u5173
p259
sI259
V\u5174
p260
sI260
V\u5175
p261
sI261
V\u5176
p262
sI262
V\u5177
p263
sI263
V\u5178
p264
sI264
V\u5179
p265
sI265
V\u517b
p266
sI266
V\u517c
p267
sI267
V\u517d
p268
sI268
V\u5180
p269
sI269
V\u5185
p270
sI270
V\u5188
p271
sI271
V\u5189
p272
sI272
V\u518c
p273
sI273
V\u518d
p274
sI274
V\u5192
p275
sI275
V\u5195
p276
sI276
V\u5197
p277
sI277
V\u5199
p278
sI278
V\u519b
p279
sI279
V\u519c
p280
sI280
V\u51a0
p281
sI281
V\u51a4
p282
sI282
V\u51ac
p283
sI283
V\u51af
p284
sI284
V\u51b0
p285
sI285
V\u51b2
p286
sI286
V\u51b3
p287
sI287
V\u51b5
p288
sI288
V\u51b6
p289
sI289
V\u51b7
p290
sI290
V\u51bb
p291
sI291
V\u51c0
p292
sI292
V\u51c4
p293
sI293
V\u51c6
p294
sI294
V\u51c9
p295
sI295
V\u51cb
p296
sI296
V\u51cc
p297
sI297
V\u51cf
p298
sI298
V\u51d1
p299
sI299
V\u51db
p300
sI300
V\u51dd
p301
sI301
V\u51e0
p302
sI302
V\u51e1
p303
sI303
V\u51e4
p304
sI304
V\u51ed
p305
sI305
V\u51ef
p306
sI306
V\u51f0
p307
sI307
V\u51f3
p308
sI308
V\u51f6
p309
sI309
V\u51f8
p310
sI310
V\u51f9
p311
sI311
V\u51fa
p312
sI312
V\u51fb
p313
sI313
V\u51fd
p314
sI314
V\u51ff
p315
sI315
V\u5200
p316
sI316
V\u5201
p317
sI317
V\u5203
p318
sI318
V\u5206
p319
sI319
V\u5207
p320
sI320
V\u520a
p321
sI321
V\u5211
p322
sI322
V\u5212
p323
sI323
V\u5217
p324
sI324
V\u5218
p325
sI325
V\u5219
p326
sI326
V\u521a
p327
sI327
V\u521b
p328
sI328
V\u521d
p329
sI329
V\u5220
p330
sI330
V\u5224
p331
sI331
V\u5228
p332
sI332
V\u5229
p333
sI333
V\u522b
p334
sI334
V\u522e
p335
sI335
V\u5230
p336
sI336
V\u5236
p337
sI337
V\u5237
p338
sI338
V\u5238
p339
sI339
V\u5239
p340
sI340
V\u523a
p341
sI341
V\u523b
p342
sI342
V\u523d
p343
sI343
V\u5241
p344
sI344
V\u5242
p345
sI345
V\u5243
p346
sI346
V\u524a
p347
sI347
V\u524d
p348
sI348
V\u5250
p349
sI349
V\u5251
p350
sI350
V\u5254
p351
sI351
V\u5256
p352
sI352
V\u5265
p353
sI353
V\u5267
p354
sI354
V\u5269
p355
sI355
V\u526a
p356
sI356
V\u526f
p357
sI357
V\u5272
p358
sI358
V\u527f
p359
sI359
V\u5288
p360
sI360
V\u529b
p361
sI361
V\u529d
p362
sI362
V\u529e
p363
sI363
V\u529f
p364
sI364
V\u52a0
p365
sI365
V\u52a1
p366
sI366
V\u52a3
p367
sI367
V\u52a8
p368
sI368
V\u52a9
p369
sI369
V\u52aa
p370
sI370
V\u52ab
p371
sI371
V\u52b1
p372
sI372
V\u52b2
p373
sI373
V\u52b3
p374
sI374
V\u52bf
p375
sI375
V\u52c3
p376
sI376
V\u52c7
p377
sI377
V\u52c9
p378
sI378
V\u52cb
p379
sI379
V\u52d2
p380
sI380
V\u52d8
p381
sI381
V\u52df
p382
sI382
V\u52e4
p383
sI383
V\u52fa
p384
sI384
V\u52fe
p385
sI385
V\u52ff
p386
sI386
V\u5300
p387
sI387
V\u5305
p388
sI388
V\u5306
p389
sI389
V\u5308
p390
sI390
V\u5316
p391
sI391
V\u5317
p392
sI392
V\u5319
p393
sI393
V\u531d
p394
sI394
V\u5320
p395
sI395
V\u5321
p396
sI396
V\u5323
p397
sI397
V\u532a
p398
sI398
V\u5339
p399
sI399
V\u533a
p400
sI400
V\u533b
p401
sI401
V\u533f
p402
sI402
V\u5341
p403
sI403
V\u5343
p404
sI404
V\u5347
p405
sI405
V\u5348
p406
sI406
V\u5349
p407
sI407
V\u534a
p408
sI408
V\u534e
p409
sI409
V\u534f
p410
sI410
V\u5351
p411
sI411
V\u5352
p412
sI412
V\u5353
p413
sI413
V\u5355
p414
sI414
V\u5356
p415
sI415
V\u5357
p416
sI416
V\u535a
p417
sI417
V\u535c
p418
sI418
V\u535e
p419
sI419
V\u5360
p420
sI420
V\u5361
p421
sI421
V\u5362
p422
sI422
V\u5364
p423
sI423
V\u5367
p424
sI424
V\u536b
p425
sI425
V\u536f
p426
sI426
V\u5370
p427
sI427
V\u5371
p428
sI428
V\u5373
p429
sI429
V\u5374
p430
sI430
V\u5375
p431
sI431
V\u5377
p432
sI432
V\u5378
p433
sI433
V\u537f
p434
sI434
V\u5382
p435
sI435
V\u5384
p436
sI436
V\u5385
p437
sI437
V\u5386
p438
sI438
V\u5389
p439
sI439
V\u538b
p440
sI440
V\u538c
p441
sI441
V\u5395
p442
sI442
V\u5398
p443
sI443
V\u539a
p444
sI444
V\u539f
p445
sI445
V\u53a2
p446
sI446
V\u53a6
p447
sI447
V\u53a8
p448
sI448
V\u53a9
p449
sI449
V\u53bb
p450
sI450
V\u53bf
p451
sI451
V\u53c1
p452
sI452
V\u53c2
p453
sI453
V\u53c8
p454
sI454
V\u53c9
p455
sI455
V\u53ca
p456
sI456
V\u53cb
p457
sI457
V\u53cc
p458
sI458
V\u53cd
p459
sI459
V\u53d1
p460
sI460
V\u53d4
p461
sI461
V\u53d6
p462
sI462
V\u53d7
p463
sI463
V\u53d8
p464
sI464
V\u53d9
p465
sI465
V\u53db
p466
sI466
V\u53e0
p467
sI467
V\u53e3
p468
sI468
V\u53e4
p469
sI469
V\u53e5
p470
sI470
V\u53e6
p471
sI471
V\u53ea
p472
sI472
V\u53eb
p473
sI473
V\u53ec
p474
sI474
V\u53ed
p475
sI475
V\u53ee
p476
sI476
V\u53ef
p477
sI477
V\u53f0
p478
sI478
V\u53f2
p479
sI479
V\u53f3
p480
sI480
V\u53f6
p481
sI481
V\u53f7
p482
sI482
V\u53f8
p483
sI483
V\u53f9
p484
sI484
V\u53fc
p485
sI485
V\u5401
p486
sI486
V\u5403
p487
sI487
V\u5404
p488
sI488
V\u5408
p489
sI489
V\u5409
p490
sI490
V\u540a
p491
sI491
V\u540c
p492
sI492
V\u540d
p493
sI493
V\u540e
p494
sI494
V\u540f
p495
sI495
V\u5410
p496
sI496
V\u5411
p497
sI497
V\u5413
p498
sI498
V\u5415
p499
sI499
V\u5417
p500
sI500
V\u541b
p501
sI501
V\u541d
p502
sI502
V\u541e
p503
sI503
V\u541f
p504
sI504
V\u5420
p505
sI505
V\u5426
p506
sI506
V\u5427
p507
sI507
V\u5428
p508
sI508
V\u5429
p509
sI509
V\u542b
p510
sI510
V\u542c
p511
sI511
V\u542d
p512
sI512
V\u542e
p513
sI513
V\u542f
p514
sI514
V\u5431
p515
sI515
V\u5434
p516
sI516
V\u5435
p517
sI517
V\u5438
p518
sI518
V\u5439
p519
sI519
V\u543b
p520
sI520
V\u543c
p521
sI521
V\u543e
p522
sI522
V\u5440
p523
sI523
V\u5446
p524
sI524
V\u5448
p525
sI525
V\u544a
p526
sI526
V\u5450
p527
sI527
V\u5455
p528
sI528
V\u5458
p529
sI529
V\u545b
p530
sI530
V\u545c
p531
sI531
V\u5462
p532
sI532
V\u5468
p533
sI533
V\u5473
p534
sI534
V\u5475
p535
sI535
V\u5478
p536
sI536
V\u547b
p537
sI537
V\u547c
p538
sI538
V\u547d
p539
sI539
V\u5480
p540
sI540
V\u5486
p541
sI541
V\u548b
p542
sI542
V\u548c
p543
sI543
V\u548e
p544
sI544
V\u548f
p545
sI545
V\u5490
p546
sI546
V\u5492
p547
sI547
V\u5495
p548
sI548
V\u5496
p549
sI549
V\u5499
p550
sI550
V\u54a8
p551
sI551
V\u54ac
p552
sI552
V\u54af
p553
sI553
V\u54b1
p554
sI554
V\u54b3
p555
sI555
V\u54b8
p556
sI556
V\u54bd
p557
sI557
V\u54c0
p558
sI558
V\u54c1
p559
sI559
V\u54c4
p560
sI560
V\u54c6
p561
sI561
V\u54c7
p562
sI562
V\u54c8
p563
sI563
V\u54c9
p564
sI564
V\u54cd
p565
sI565
V\u54ce
p566
sI566
V\u54d1
p567
sI567
V\u54d7
p568
sI568
V\u54df
p569
sI569
V\u54e5
p570
sI570
V\u54e6
p571
sI571
V\u54e8
p572
sI572
V\u54e9
p573
sI573
V\u54ea
p574
sI574
V\u54ed
p575
sI575
V\u54ee
p576
sI576
V\u54f2
p577
sI577
V\u54fa
p578
sI578
V\u54fc
p579
sI579
V\u5501
p580
sI580
V\u5506
p581
sI581
V\u5507
p582
sI582
V\u5509
p583
sI583
V\u5510
p584
sI584
V\u5524
p585
sI585
V\u552c
p586
sI586
V\u552e
p587
sI587
V\u552f
p588
sI588
V\u5531
p589
sI589
V\u553e
p590
sI590
V\u5543
p591
sI591
V\u5544
p592
sI592
V\u5546
p593
sI593
V\u554a
p594
sI594
V\u5561
p595
sI595
V\u5564
p596
sI596
V\u5565
p597
sI597
V\u5566
p598
sI598
V\u556a
p599
sI599
V\u556e
p600
sI600
V\u5578
p601
sI601
V\u557c
p602
sI602
V\u5580
p603
sI603
V\u5582
p604
sI604
V\u5584
p605
sI605
V\u5587
p606
sI606
V\u5589
p607
sI607
V\u558a
p608
sI608
V\u5598
p609
sI609
V\u559c
p610
sI610
V\u559d
p611
sI611
V\u55a7
p612
sI612
V\u55b3
p613
sI613
V\u55b7
p614
sI614
V\u55bb
p615
sI615
V\u55c5
p616
sI616
V\u55d3
p617
sI617
V\u55dc
p618
sI618
V\u55e1
p619
sI619
V\u55e3
p620
sI620
V\u55fd
p621
sI621
V\u5609
p622
sI622
V\u560e
p623
sI623
V\u5618
p624
sI624
V\u561b
p625
sI625
V\u5631
p626
sI626
V\u5632
p627
sI627
V\u5634
p628
sI628
V\u5636
p629
sI629
V\u563b
p630
sI630
V\u563f
p631
sI631
V\u564e
p632
sI632
V\u5668
p633
sI633
V\u566a
p634
sI634
V\u566c
p635
sI635
V\u5676
p636
sI636
V\u568e
p637
sI637
V\u568f
p638
sI638
V\u56a3
p639
sI639
V\u56b7
p640
sI640
V\u56bc
p641
sI641
V\u56ca
p642
sI642
V\u56da
p643
sI643
V\u56db
p644
sI644
V\u56de
p645
sI645
V\u56e0
p646
sI646
V\u56e2
p647
sI647
V\u56e4
p648
sI648
V\u56ed
p649
sI649
V\u56f0
p650
sI650
V\u56f1
p651
sI651
V\u56f4
p652
sI652
V\u56fa
p653
sI653
V\u56fd
p654
sI654
V\u56fe
p655
sI655
V\u5703
p656
sI656
V\u5706
p657
sI657
V\u5708
p658
sI658
V\u571f
p659
sI659
V\u5723
p660
sI660
V\u5728
p661
sI661
V\u572d
p662
sI662
V\u5730
p663
sI663
V\u573a
p664
sI664
V\u573e
p665
sI665
V\u5740
p666
sI666
V\u5747
p667
sI667
V\u574a
p668
sI668
V\u574d
p669
sI669
V\u574e
p670
sI670
V\u574f
p671
sI671
V\u5750
p672
sI672
V\u5751
p673
sI673
V\u5757
p674
sI674
V\u575a
p675
sI675
V\u575b
p676
sI676
V\u575d
p677
sI677
V\u575e
p678
sI678
V\u575f
p679
sI679
V\u5760
p680
sI680
V\u5761
p681
sI681
V\u5764
p682
sI682
V\u5766
p683
sI683
V\u576a
p684
sI684
V\u576f
p685
sI685
V\u5777
p686
sI686
V\u5782
p687
sI687
V\u5783
p688
sI688
V\u5784
p689
sI689
V\u578b
p690
sI690
V\u5792
p691
sI691
V\u579b
p692
sI692
V\u57a2
p693
sI693
V\u57a3
p694
sI694
V\u57a6
p695
sI695
V\u57ab
p696
sI696
V\u57ae
p697
sI697
V\u57c2
p698
sI698
V\u57c3
p699
sI699
V\u57cb
p700
sI700
V\u57ce
p701
sI701
V\u57d4
p702
sI702
V\u57df
p703
sI703
V\u57e0
p704
sI704
V\u57f9
p705
sI705
V\u57fa
p706
sI706
V\u5802
p707
sI707
V\u5806
p708
sI708
V\u5811
p709
sI709
V\u5815
p710
sI710
V\u5821
p711
sI711
V\u5824
p712
sI712
V\u582a
p713
sI713
V\u5830
p714
sI714
V\u5835
p715
sI715
V\u584c
p716
sI716
V\u5851
p717
sI717
V\u5854
p718
sI718
V\u5858
p719
sI719
V\u585e
p720
sI720
V\u586b
p721
sI721
V\u5883
p722
sI722
V\u5885
p723
sI723
V\u5892
p724
sI724
V\u5893
p725
sI725
V\u5899
p726
sI726
V\u589e
p727
sI727
V\u589f
p728
sI728
V\u58a8
p729
sI729
V\u58a9
p730
sI730
V\u58c1
p731
sI731
V\u58d5
p732
sI732
V\u58e4
p733
sI733
V\u58eb
p734
sI734
V\u58ec
p735
sI735
V\u58ee
p736
sI736
V\u58f0
p737
sI737
V\u58f3
p738
sI738
V\u58f6
p739
sI739
V\u58f9
p740
sI740
V\u5904
p741
sI741
V\u5907
p742
sI742
V\u590d
p743
sI743
V\u590f
p744
sI744
V\u5915
p745
sI745
V\u5916
p746
sI746
V\u591a
p747
sI747
V\u591c
p748
sI748
V\u591f
p749
sI749
V\u5927
p750
sI750
V\u5929
p751
sI751
V\u592a
p752
sI752
V\u592b
p753
sI753
V\u592e
p754
sI754
V\u592f
p755
sI755
V\u5931
p756
sI756
V\u5934
p757
sI757
V\u5937
p758
sI758
V\u5938
p759
sI759
V\u5939
p760
sI760
V\u593a
p761
sI761
V\u5944
p762
sI762
V\u5947
p763
sI763
V\u5948
p764
sI764
V\u5949
p765
sI765
V\u594b
p766
sI766
V\u594e
p767
sI767
V\u594f
p768
sI768
V\u5951
p769
sI769
V\u5954
p770
sI770
V\u5956
p771
sI771
V\u5957
p772
sI772
V\u5960
p773
sI773
V\u5962
p774
sI774
V\u5965
p775
sI775
V\u5973
p776
sI776
V\u5974
p777
sI777
V\u5976
p778
sI778
V\u5978
p779
sI779
V\u5979
p780
sI780
V\u597d
p781
sI781
V\u5982
p782
sI782
V\u5984
p783
sI783
V\u5986
p784
sI784
V\u5987
p785
sI785
V\u5988
p786
sI786
V\u598a
p787
sI787
V\u5992
p788
sI788
V\u5993
p789
sI789
V\u5996
p790
sI790
V\u5999
p791
sI791
V\u59a5
p792
sI792
V\u59a8
p793
sI793
V\u59ae
p794
sI794
V\u59b9
p795
sI795
V\u59bb
p796
sI796
V\u59c6
p797
sI797
V\u59cb
p798
sI798
V\u59d0
p799
sI799
V\u59d1
p800
sI800
V\u59d3
p801
sI801
V\u59d4
p802
sI802
V\u59da
p803
sI803
V\u59dc
p804
sI804
V\u59e5
p805
sI805
V\u59e8
p806
sI806
V\u59ec
p807
sI807
V\u59fb
p808
sI808
V\u59ff
p809
sI809
V\u5a01
p810
sI810
V\u5a03
p811
sI811
V\u5a04
p812
sI812
V\u5a07
p813
sI813
V\u5a18
p814
sI814
V\u5a1c
p815
sI815
V\u5a1f
p816
sI816
V\u5a20
p817
sI817
V\u5a25
p818
sI818
V\u5a29
p819
sI819
V\u5a31
p820
sI820
V\u5a36
p821
sI821
V\u5a46
p822
sI822
V\u5a49
p823
sI823
V\u5a5a
p824
sI824
V\u5a6a
p825
sI825
V\u5a74
p826
sI826
V\u5a76
p827
sI827
V\u5a7f
p828
sI828
V\u5a92
p829
sI829
V\u5a9a
p830
sI830
V\u5ab3
p831
sI831
V\u5ac1
p832
sI832
V\u5ac2
p833
sI833
V\u5ac9
p834
sI834
V\u5acc
p835
sI835
V\u5ae1
p836
sI836
V\u5ae9
p837
sI837
V\u5b50
p838
sI838
V\u5b54
p839
sI839
V\u5b55
p840
sI840
V\u5b57
p841
sI841
V\u5b58
p842
sI842
V\u5b59
p843
sI843
V\u5b5c
p844
sI844
V\u5b5d
p845
sI845
V\u5b5f
p846
sI846
V\u5b63
p847
sI847
V\u5b64
p848
sI848
V\u5b66
p849
sI849
V\u5b69
p850
sI850
V\u5b6a
p851
sI851
V\u5b70
p852
sI852
V\u5b75
p853
sI853
V\u5b7a
p854
sI854
V\u5b7d
p855
sI855
V\u5b81
p856
sI856
V\u5b83
p857
sI857
V\u5b85
p858
sI858
V\u5b87
p859
sI859
V\u5b88
p860
sI860
V\u5b89
p861
sI861
V\u5b8b
p862
sI862
V\u5b8c
p863
sI863
V\u5b8f
p864
sI864
V\u5b97
p865
sI865
V\u5b98
p866
sI866
V\u5b99
p867
sI867
V\u5b9a
p868
sI868
V\u5b9b
p869
sI869
V\u5b9c
p870
sI870
V\u5b9d
p871
sI871
V\u5b9e
p872
sI872
V\u5ba0
p873
sI873
V\u5ba1
p874
sI874
V\u5ba2
p875
sI875
V\u5ba3
p876
sI876
V\u5ba4
p877
sI877
V\u5ba6
p878
sI878
V\u5baa
p879
sI879
V\u5bab
p880
sI880
V\u5bb0
p881
sI881
V\u5bb3
p882
sI882
V\u5bb4
p883
sI883
V\u5bb5
p884
sI884
V\u5bb6
p885
sI885
V\u5bb9
p886
sI886
V\u5bbd
p887
sI887
V\u5bbe
p888
sI888
V\u5bbf
p889
sI889
V\u5bc2
p890
sI890
V\u5bc4
p891
sI891
V\u5bc5
p892
sI892
V\u5bc6
p893
sI893
V\u5bc7
p894
sI894
V\u5bcc
p895
sI895
V\u5bd0
p896
sI896
V\u5bd2
p897
sI897
V\u5bd3
p898
sI898
V\u5bdd
p899
sI899
V\u5bde
p900
sI900
V\u5bdf
p901
sI901
V\u5be1
p902
sI902
V\u5be5
p903
sI903
V\u5be8
p904
sI904
V\u5bf8
p905
sI905
V\u5bf9
p906
sI906
V\u5bfa
p907
sI907
V\u5bfb
p908
sI908
V\u5bfc
p909
sI909
V\u5bff
p910
sI910
V\u5c01
p911
sI911
V\u5c04
p912
sI912
V\u5c06
p913
sI913
V\u5c09
p914
sI914
V\u5c0a
p915
sI915
V\u5c0f
p916
sI916
V\u5c11
p917
sI917
V\u5c14
p918
sI918
V\u5c16
p919
sI919
V\u5c18
p920
sI920
V\u5c1a
p921
sI921
V\u5c1d
p922
sI922
V\u5c24
p923
sI923
V\u5c27
p924
sI924
V\u5c31
p925
sI925
V\u5c38
p926
sI926
V\u5c39
p927
sI927
V\u5c3a
p928
sI928
V\u5c3c
p929
sI929
V\u5c3d
p930
sI930
V\u5c3e
p931
sI931
V\u5c3f
p932
sI932
V\u5c40
p933
sI933
V\u5c41
p934
sI934
V\u5c42
p935
sI935
V\u5c45
p936
sI936
V\u5c48
p937
sI937
V\u5c49
p938
sI938
V\u5c4a
p939
sI939
V\u5c4b
p940
sI940
V\u5c4e
p941
sI941
V\u5c4f
p942
sI942
V\u5c51
p943
sI943
V\u5c55
p944
sI944
V\u5c5e
p945
sI945
V\u5c60
p946
sI946
V\u5c61
p947
sI947
V\u5c65
p948
sI948
V\u5c6f
p949
sI949
V\u5c71
p950
sI950
V\u5c79
p951
sI951
V\u5c7f
p952
sI952
V\u5c81
p953
sI953
V\u5c82
p954
sI954
V\u5c94
p955
sI955
V\u5c97
p956
sI956
V\u5c9b
p957
sI957
V\u5ca9
p958
sI958
V\u5cad
p959
sI959
V\u5cb3
p960
sI960
V\u5cb8
p961
sI961
V\u5cbf
p962
sI962
V\u5cd9
p963
sI963
V\u5ce1
p964
sI964
V\u5ce6
p965
sI965
V\u5ce8
p966
sI966
V\u5cea
p967
sI967
V\u5ced
p968
sI968
V\u5cf0
p969
sI969
V\u5cfb
p970
sI970
V\u5d07
p971
sI971
V\u5d0e
p972
sI972
V\u5d14
p973
sI973
V\u5d16
p974
sI974
V\u5d29
p975
sI975
V\u5d2d
p976
sI976
V\u5d4c
p977
sI977
V\u5dcd
p978
sI978
V\u5ddd
p979
sI979
V\u5dde
p980
sI980
V\u5de1
p981
sI981
V\u5de2
p982
sI982
V\u5de5
p983
sI983
V\u5de6
p984
sI984
V\u5de7
p985
sI985
V\u5de8
p986
sI986
V\u5de9
p987
sI987
V\u5deb
p988
sI988
V\u5dee
p989
sI989
V\u5df1
p990
sI990
V\u5df2
p991
sI991
V\u5df3
p992
sI992
V\u5df4
p993
sI993
V\u5df7
p994
sI994
V\u5dfe
p995
sI995
V\u5e01
p996
sI996
V\u5e02
p997
sI997
V\u5e03
p998
sI998
V\u5e05
p999
sI999
V\u5e06
p1000
sI1000
V\u5e08
p1001
sI1001
V\u5e0c
p1002
sI1002
V\u5e10
p1003
sI1003
V\u5e15
p1004
sI1004
V\u5e16
p1005
sI1005
V\u5e18
p1006
sI1006
V\u5e1a
p1007
sI1007
V\u5e1b
p1008
sI1008
V\u5e1c
p1009
sI1009
V\u5e1d
p1010
sI1010
V\u5e26
p1011
sI1011
V\u5e27
p1012
sI1012
V\u5e2d
p1013
sI1013
V\u5e2e
p1014
sI1014
V\u5e38
p1015
sI1015
V\u5e3d
p1016
sI1016
V\u5e42
p1017
sI1017
V\u5e45
p1018
sI1018
V\u5e4c
p1019
sI1019
V\u5e55
p1020
sI1020
V\u5e62
p1021
sI1021
V\u5e72
p1022
sI1022
V\u5e73
p1023
sI1023
V\u5e74
p1024
sI1024
V\u5e76
p1025
sI1025
V\u5e78
p1026
sI1026
V\u5e7b
p1027
sI1027
V\u5e7c
p1028
sI1028
V\u5e7d
p1029
sI1029
V\u5e7f
p1030
sI1030
V\u5e84
p1031
sI1031
V\u5e86
p1032
sI1032
V\u5e87
p1033
sI1033
V\u5e8a
p1034
sI1034
V\u5e8f
p1035
sI1035
V\u5e90
p1036
sI1036
V\u5e93
p1037
sI1037
V\u5e94
p1038
sI1038
V\u5e95
p1039
sI1039
V\u5e97
p1040
sI1040
V\u5e99
p1041
sI1041
V\u5e9a
p1042
sI1042
V\u5e9c
p1043
sI1043
V\u5e9e
p1044
sI1044
V\u5e9f
p1045
sI1045
V\u5ea6
p1046
sI1046
V\u5ea7
p1047
sI1047
V\u5ead
p1048
sI1048
V\u5eb6
p1049
sI1049
V\u5eb7
p1050
sI1050
V\u5eb8
p1051
sI1051
V\u5ec9
p1052
sI1052
V\u5eca
p1053
sI1053
V\u5ed3
p1054
sI1054
V\u5ed6
p1055
sI1055
V\u5ef6
p1056
sI1056
V\u5ef7
p1057
sI1057
V\u5efa
p1058
sI1058
V\u5f00
p1059
sI1059
V\u5f02
p1060
sI1060
V\u5f03
p1061
sI1061
V\u5f04
p1062
sI1062
V\u5f0a
p1063
sI1063
V\u5f0f
p1064
sI1064
V\u5f13
p1065
sI1065
V\u5f15
p1066
sI1066
V\u5f17
p1067
sI1067
V\u5f18
p1068
sI1068
V\u5f1b
p1069
sI1069
V\u5f1f
p1070
sI1070
V\u5f20
p1071
sI1071
V\u5f25
p1072
sI1072
V\u5f26
p1073
sI1073
V\u5f27
p1074
sI1074
V\u5f2f
p1075
sI1075
V\u5f31
p1076
sI1076
V\u5f39
p1077
sI1077
V\u5f3a
p1078
sI1078
V\u5f52
p1079
sI1079
V\u5f53
p1080
sI1080
V\u5f55
p1081
sI1081
V\u5f5d
p1082
sI1082
V\u5f62
p1083
sI1083
V\u5f64
p1084
sI1084
V\u5f66
p1085
sI1085
V\u5f69
p1086
sI1086
V\u5f6a
p1087
sI1087
V\u5f6c
p1088
sI1088
V\u5f6d
p1089
sI1089
V\u5f70
p1090
sI1090
V\u5f71
p1091
sI1091
V\u5f79
p1092
sI1092
V\u5f7b
p1093
sI1093
V\u5f7c
p1094
sI1094
V\u5f80
p1095
sI1095
V\u5f81
p1096
sI1096
V\u5f84
p1097
sI1097
V\u5f85
p1098
sI1098
V\u5f88
p1099
sI1099
V\u5f8a
p1100
sI1100
V\u5f8b
p1101
sI1101
V\u5f90
p1102
sI1102
V\u5f92
p1103
sI1103
V\u5f97
p1104
sI1104
V\u5f98
p1105
sI1105
V\u5fa1
p1106
sI1106
V\u5faa
p1107
sI1107
V\u5fae
p1108
sI1108
V\u5fb7
p1109
sI1109
V\u5fbd
p1110
sI1110
V\u5fc3
p1111
sI1111
V\u5fc5
p1112
sI1112
V\u5fc6
p1113
sI1113
V\u5fcc
p1114
sI1114
V\u5fcd
p1115
sI1115
V\u5fd7
p1116
sI1116
V\u5fd8
p1117
sI1117
V\u5fd9
p1118
sI1118
V\u5fe0
p1119
sI1119
V\u5fe7
p1120
sI1120
V\u5feb
p1121
sI1121
V\u5ff1
p1122
sI1122
V\u5ff5
p1123
sI1123
V\u5ffb
p1124
sI1124
V\u5ffd
p1125
sI1125
V\u5fff
p1126
sI1126
V\u6000
p1127
sI1127
V\u6001
p1128
sI1128
V\u6002
p1129
sI1129
V\u600e
p1130
sI1130
V\u6012
p1131
sI1131
V\u6014
p1132
sI1132
V\u6015
p1133
sI1133
V\u6016
p1134
sI1134
V\u601c
p1135
sI1135
V\u601d
p1136
sI1136
V\u6020
p1137
sI1137
V\u6025
p1138
sI1138
V\u6027
p1139
sI1139
V\u6028
p1140
sI1140
V\u602a
p1141
sI1141
V\u602f
p1142
sI1142
V\u603b
p1143
sI1143
V\u6043
p1144
sI1144
V\u604b
p1145
sI1145
V\u604d
p1146
sI1146
V\u6050
p1147
sI1147
V\u6052
p1148
sI1148
V\u6055
p1149
sI1149
V\u6062
p1150
sI1150
V\u6064
p1151
sI1151
V\u6068
p1152
sI1152
V\u6069
p1153
sI1153
V\u606b
p1154
sI1154
V\u606c
p1155
sI1155
V\u606d
p1156
sI1156
V\u606f
p1157
sI1157
V\u6070
p1158
sI1158
V\u6073
p1159
sI1159
V\u6076
p1160
sI1160
V\u607c
p1161
sI1161
V\u607f
p1162
sI1162
V\u6084
p1163
sI1163
V\u6089
p1164
sI1164
V\u608d
p1165
sI1165
V\u6094
p1166
sI1166
V\u609f
p1167
sI1167
V\u60a0
p1168
sI1168
V\u60a3
p1169
sI1169
V\u60a6
p1170
sI1170
V\u60a8
p1171
sI1171
V\u60ac
p1172
sI1172
V\u60af
p1173
sI1173
V\u60b2
p1174
sI1174
V\u60b8
p1175
sI1175
V\u60bc
p1176
sI1176
V\u60c5
p1177
sI1177
V\u60ca
p1178
sI1178
V\u60cb
p1179
sI1179
V\u60d1
p1180
sI1180
V\u60d5
p1181
sI1181
V\u60dc
p1182
sI1182
V\u60df
p1183
sI1183
V\u60e0
p1184
sI1184
V\u60e6
p1185
sI1185
V\u60e7
p1186
sI1186
V\u60e8
p1187
sI1187
V\u60e9
p1188
sI1188
V\u60eb
p1189
sI1189
V\u60ed
p1190
sI1190
V\u60ee
p1191
sI1191
V\u60ef
p1192
sI1192
V\u60f0
p1193
sI1193
V\u60f3
p1194
sI1194
V\u60f6
p1195
sI1195
V\u60f9
p1196
sI1196
V\u60fa
p1197
sI1197
V\u6101
p1198
sI1198
V\u6108
p1199
sI1199
V\u6109
p1200
sI1200
V\u610f
p1201
sI1201
V\u611a
p1202
sI1202
V\u611f
p1203
sI1203
V\u6124
p1204
sI1204
V\u6127
p1205
sI1205
V\u613f
p1206
sI1206
V\u6148
p1207
sI1207
V\u614c
p1208
sI1208
V\u614e
p1209
sI1209
V\u6151
p1210
sI1210
V\u6155
p1211
sI1211
V\u6162
p1212
sI1212
V\u6167
p1213
sI1213
V\u6168
p1214
sI1214
V\u6170
p1215
sI1215
V\u6177
p1216
sI1216
V\u618b
p1217
sI1217
V\u618e
p1218
sI1218
V\u61a8
p1219
sI1219
V\u61be
p1220
sI1220
V\u61c2
p1221
sI1221
V\u61c8
p1222
sI1222
V\u61ca
p1223
sI1223
V\u61d2
p1224
sI1224
V\u61e6
p1225
sI1225
V\u6208
p1226
sI1226
V\u620a
p1227
sI1227
V\u620c
p1228
sI1228
V\u620d
p1229
sI1229
V\u620e
p1230
sI1230
V\u620f
p1231
sI1231
V\u6210
p1232
sI1232
V\u6211
p1233
sI1233
V\u6212
p1234
sI1234
V\u6216
p1235
sI1235
V\u6218
p1236
sI1236
V\u621a
p1237
sI1237
V\u622a
p1238
sI1238
V\u622e
p1239
sI1239
V\u6233
p1240
sI1240
V\u6234
p1241
sI1241
V\u6237
p1242
sI1242
V\u623f
p1243
sI1243
V\u6240
p1244
sI1244
V\u6241
p1245
sI1245
V\u6247
p1246
sI1246
V\u624b
p1247
sI1247
V\u624d
p1248
sI1248
V\u624e
p1249
sI1249
V\u6251
p1250
sI1250
V\u6252
p1251
sI1251
V\u6253
p1252
sI1252
V\u6254
p1253
sI1253
V\u6258
p1254
sI1254
V\u625b
p1255
sI1255
V\u6263
p1256
sI1256
V\u6266
p1257
sI1257
V\u6267
p1258
sI1258
V\u6269
p1259
sI1259
V\u626b
p1260
sI1260
V\u626c
p1261
sI1261
V\u626d
p1262
sI1262
V\u626e
p1263
sI1263
V\u626f
p1264
sI1264
V\u6270
p1265
sI1265
V\u6273
p1266
sI1266
V\u6276
p1267
sI1267
V\u6279
p1268
sI1268
V\u627c
p1269
sI1269
V\u627e
p1270
sI1270
V\u627f
p1271
sI1271
V\u6280
p1272
sI1272
V\u6284
p1273
sI1273
V\u6289
p1274
sI1274
V\u628a
p1275
sI1275
V\u6291
p1276
sI1276
V\u6292
p1277
sI1277
V\u6293
p1278
sI1278
V\u6295
p1279
sI1279
V\u6296
p1280
sI1280
V\u6297
p1281
sI1281
V\u6298
p1282
sI1282
V\u629a
p1283
sI1283
V\u629b
p1284
sI1284
V\u62a0
p1285
sI1285
V\u62a1
p1286
sI1286
V\u62a2
p1287
sI1287
V\u62a4
p1288
sI1288
V\u62a5
p1289
sI1289
V\u62a8
p1290
sI1290
V\u62ab
p1291
sI1291
V\u62ac
p1292
sI1292
V\u62b1
p1293
sI1293
V\u62b5
p1294
sI1294
V\u62b9
p1295
sI1295
V\u62bc
p1296
sI1296
V\u62bd
p1297
sI1297
V\u62bf
p1298
sI1298
V\u62c2
p1299
sI1299
V\u62c4
p1300
sI1300
V\u62c5
p1301
sI1301
V\u62c6
p1302
sI1302
V\u62c7
p1303
sI1303
V\u62c8
p1304
sI1304
V\u62c9
p1305
sI1305
V\u62cc
p1306
sI1306
V\u62cd
p1307
sI1307
V\u62ce
p1308
sI1308
V\u62d0
p1309
sI1309
V\u62d2
p1310
sI1310
V\u62d3
p1311
sI1311
V\u62d4
p1312
sI1312
V\u62d6
p1313
sI1313
V\u62d8
p1314
sI1314
V\u62d9
p1315
sI1315
V\u62db
p1316
sI1316
V\u62dc
p1317
sI1317
V\u62df
p1318
sI1318
V\u62e2
p1319
sI1319
V\u62e3
p1320
sI1320
V\u62e5
p1321
sI1321
V\u62e6
p1322
sI1322
V\u62e7
p1323
sI1323
V\u62e8
p1324
sI1324
V\u62e9
p1325
sI1325
V\u62ec
p1326
sI1326
V\u62ed
p1327
sI1327
V\u62ef
p1328
sI1328
V\u62f1
p1329
sI1329
V\u62f3
p1330
sI1330
V\u62f4
p1331
sI1331
V\u62f7
p1332
sI1332
V\u62fc
p1333
sI1333
V\u62fd
p1334
sI1334
V\u62fe
p1335
sI1335
V\u62ff
p1336
sI1336
V\u6301
p1337
sI1337
V\u6302
p1338
sI1338
V\u6307
p1339
sI1339
V\u6309
p1340
sI1340
V\u630e
p1341
sI1341
V\u6311
p1342
sI1342
V\u6316
p1343
sI1343
V\u631a
p1344
sI1344
V\u631b
p1345
sI1345
V\u631d
p1346
sI1346
V\u631e
p1347
sI1347
V\u631f
p1348
sI1348
V\u6320
p1349
sI1349
V\u6321
p1350
sI1350
V\u6323
p1351
sI1351
V\u6324
p1352
sI1352
V\u6325
p1353
sI1353
V\u6328
p1354
sI1354
V\u632a
p1355
sI1355
V\u632b
p1356
sI1356
V\u632f
p1357
sI1357
V\u633a
p1358
sI1358
V\u633d
p1359
sI1359
V\u6342
p1360
sI1360
V\u6345
p1361
sI1361
V\u6346
p1362
sI1362
V\u6349
p1363
sI1363
V\u634c
p1364
sI1364
V\u634d
p1365
sI1365
V\u634e
p1366
sI1366
V\u634f
p1367
sI1367
V\u6350
p1368
sI1368
V\u6355
p1369
sI1369
V\u635e
p1370
sI1370
V\u635f
p1371
sI1371
V\u6361
p1372
sI1372
V\u6362
p1373
sI1373
V\u6363
p1374
sI1374
V\u6367
p1375
sI1375
V\u636e
p1376
sI1376
V\u6376
p1377
sI1377
V\u6377
p1378
sI1378
V\u637b
p1379
sI1379
V\u6380
p1380
sI1380
V\u6382
p1381
sI1381
V\u6387
p1382
sI1382
V\u6388
p1383
sI1383
V\u6389
p1384
sI1384
V\u638c
p1385
sI1385
V\u638f
p1386
sI1386
V\u6390
p1387
sI1387
V\u6392
p1388
sI1388
V\u6396
p1389
sI1389
V\u6398
p1390
sI1390
V\u63a0
p1391
sI1391
V\u63a2
p1392
sI1392
V\u63a3
p1393
sI1393
V\u63a5
p1394
sI1394
V\u63a7
p1395
sI1395
V\u63a8
p1396
sI1396
V\u63a9
p1397
sI1397
V\u63aa
p1398
sI1398
V\u63b3
p1399
sI1399
V\u63b7
p1400
sI1400
V\u63b8
p1401
sI1401
V\u63ba
p1402
sI1402
V\u63c9
p1403
sI1403
V\u63cd
p1404
sI1404
V\u63cf
p1405
sI1405
V\u63d0
p1406
sI1406
V\u63d2
p1407
sI1407
V\u63d6
p1408
sI1408
V\u63e1
p1409
sI1409
V\u63e3
p1410
sI1410
V\u63e9
p1411
sI1411
V\u63ea
p1412
sI1412
V\u63ed
p1413
sI1413
V\u63f4
p1414
sI1414
V\u63fd
p1415
sI1415
V\u6400
p1416
sI1416
V\u6401
p1417
sI1417
V\u6402
p1418
sI1418
V\u6405
p1419
sI1419
V\u640f
p1420
sI1420
V\u6410
p1421
sI1421
V\u6413
p1422
sI1422
V\u6414
p1423
sI1423
V\u641c
p1424
sI1424
V\u641e
p1425
sI1425
V\u642a
p1426
sI1426
V\u642c
p1427
sI1427
V\u642d
p1428
sI1428
V\u643a
p1429
sI1429
V\u643d
p1430
sI1430
V\u6444
p1431
sI1431
V\u6446
p1432
sI1432
V\u6447
p1433
sI1433
V\u6448
p1434
sI1434
V\u644a
p1435
sI1435
V\u6454
p1436
sI1436
V\u6458
p1437
sI1437
V\u6467
p1438
sI1438
V\u6469
p1439
sI1439
V\u6478
p1440
sI1440
V\u6479
p1441
sI1441
V\u6482
p1442
sI1442
V\u6485
p1443
sI1443
V\u6487
p1444
sI1444
V\u6491
p1445
sI1445
V\u6492
p1446
sI1446
V\u6495
p1447
sI1447
V\u649e
p1448
sI1448
V\u64a4
p1449
sI1449
V\u64a9
p1450
sI1450
V\u64ac
p1451
sI1451
V\u64ad
p1452
sI1452
V\u64ae
p1453
sI1453
V\u64b0
p1454
sI1454
V\u64b5
p1455
sI1455
V\u64bc
p1456
sI1456
V\u64c2
p1457
sI1457
V\u64c5
p1458
sI1458
V\u64cd
p1459
sI1459
V\u64ce
p1460
sI1460
V\u64d2
p1461
sI1461
V\u64de
p1462
sI1462
V\u64e6
p1463
sI1463
V\u6500
p1464
sI1464
V\u6512
p1465
sI1465
V\u6518
p1466
sI1466
V\u652b
p1467
sI1467
V\u652f
p1468
sI1468
V\u6536
p1469
sI1469
V\u6539
p1470
sI1470
V\u653b
p1471
sI1471
V\u653e
p1472
sI1472
V\u653f
p1473
sI1473
V\u6545
p1474
sI1474
V\u6548
p1475
sI1475
V\u654c
p1476
sI1476
V\u654f
p1477
sI1477
V\u6551
p1478
sI1478
V\u6556
p1479
sI1479
V\u6559
p1480
sI1480
V\u655b
p1481
sI1481
V\u655d
p1482
sI1482
V\u655e
p1483
sI1483
V\u6562
p1484
sI1484
V\u6563
p1485
sI1485
V\u6566
p1486
sI1486
V\u656c
p1487
sI1487
V\u6570
p1488
sI1488
V\u6572
p1489
sI1489
V\u6574
p1490
sI1490
V\u6577
p1491
sI1491
V\u6587
p1492
sI1492
V\u658b
p1493
sI1493
V\u658c
p1494
sI1494
V\u6591
p1495
sI1495
V\u6597
p1496
sI1496
V\u6599
p1497
sI1497
V\u659c
p1498
sI1498
V\u659f
p1499
sI1499
V\u65a1
p1500
sI1500
V\u65a4
p1501
sI1501
V\u65a5
p1502
sI1502
V\u65a7
p1503
sI1503
V\u65a9
p1504
sI1504
V\u65ad
p1505
sI1505
V\u65af
p1506
sI1506
V\u65b0
p1507
sI1507
V\u65b9
p1508
sI1508
V\u65bd
p1509
sI1509
V\u65c1
p1510
sI1510
V\u65c5
p1511
sI1511
V\u65cb
p1512
sI1512
V\u65cf
p1513
sI1513
V\u65d7
p1514
sI1514
V\u65e0
p1515
sI1515
V\u65e2
p1516
sI1516
V\u65e5
p1517
sI1517
V\u65e6
p1518
sI1518
V\u65e7
p1519
sI1519
V\u65e8
p1520
sI1520
V\u65e9
p1521
sI1521
V\u65ec
p1522
sI1522
V\u65ed
p1523
sI1523
V\u65f1
p1524
sI1524
V\u65f6
p1525
sI1525
V\u65f7
p1526
sI1526
V\u65fa
p1527
sI1527
V\u6602
p1528
sI1528
V\u6606
p1529
sI1529
V\u660c
p1530
sI1530
V\u660e
p1531
sI1531
V\u660f
p1532
sI1532
V\u6613
p1533
sI1533
V\u6614
p1534
sI1534
V\u661f
p1535
sI1535
V\u6620
p1536
sI1536
V\u6625
p1537
sI1537
V\u6627
p1538
sI1538
V\u6628
p1539
sI1539
V\u662d
p1540
sI1540
V\u662f
p1541
sI1541
V\u663c
p1542
sI1542
V\u663e
p1543
sI1543
V\u6643
p1544
sI1544
V\u664b
p1545
sI1545
V\u664c
p1546
sI1546
V\u6652
p1547
sI1547
V\u6653
p1548
sI1548
V\u6655
p1549
sI1549
V\u665a
p1550
sI1550
V\u6664
p1551
sI1551
V\u6666
p1552
sI1552
V\u6668
p1553
sI1553
V\u666e
p1554
sI1554
V\u666f
p1555
sI1555
V\u6670
p1556
sI1556
V\u6674
p1557
sI1557
V\u6676
p1558
sI1558
V\u667a
p1559
sI1559
V\u667e
p1560
sI1560
V\u6682
p1561
sI1561
V\u6687
p1562
sI1562
V\u6691
p1563
sI1563
V\u6696
p1564
sI1564
V\u6697
p1565
sI1565
V\u66ae
p1566
sI1566
V\u66b4
p1567
sI1567
V\u66d9
p1568
sI1568
V\u66dd
p1569
sI1569
V\u66f0
p1570
sI1570
V\u66f2
p1571
sI1571
V\u66f3
p1572
sI1572
V\u66f4
p1573
sI1573
V\u66f9
p1574
sI1574
V\u66fc
p1575
sI1575
V\u66fe
p1576
sI1576
V\u66ff
p1577
sI1577
V\u6700
p1578
sI1578
V\u6708
p1579
sI1579
V\u6709
p1580
sI1580
V\u670b
p1581
sI1581
V\u670d
p1582
sI1582
V\u6714
p1583
sI1583
V\u6717
p1584
sI1584
V\u671b
p1585
sI1585
V\u671d
p1586
sI1586
V\u671f
p1587
sI1587
V\u6728
p1588
sI1588
V\u672a
p1589
sI1589
V\u672b
p1590
sI1590
V\u672c
p1591
sI1591
V\u672d
p1592
sI1592
V\u672f
p1593
sI1593
V\u6731
p1594
sI1594
V\u6734
p1595
sI1595
V\u6735
p1596
sI1596
V\u673a
p1597
sI1597
V\u673d
p1598
sI1598
V\u6740
p1599
sI1599
V\u6742
p1600
sI1600
V\u6743
p1601
sI1601
V\u6746
p1602
sI1602
V\u6749
p1603
sI1603
V\u674e
p1604
sI1604
V\u674f
p1605
sI1605
V\u6750
p1606
sI1606
V\u6751
p1607
sI1607
V\u6756
p1608
sI1608
V\u675c
p1609
sI1609
V\u675f
p1610
sI1610
V\u6760
p1611
sI1611
V\u6761
p1612
sI1612
V\u6765
p1613
sI1613
V\u6768
p1614
sI1614
V\u676d
p1615
sI1615
V\u676f
p1616
sI1616
V\u6770
p1617
sI1617
V\u677e
p1618
sI1618
V\u677f
p1619
sI1619
V\u6781
p1620
sI1620
V\u6784
p1621
sI1621
V\u6789
p1622
sI1622
V\u6790
p1623
sI1623
V\u6795
p1624
sI1624
V\u6797
p1625
sI1625
V\u679a
p1626
sI1626
V\u679c
p1627
sI1627
V\u679d
p1628
sI1628
V\u67a2
p1629
sI1629
V\u67a3
p1630
sI1630
V\u67aa
p1631
sI1631
V\u67ab
p1632
sI1632
V\u67af
p1633
sI1633
V\u67b6
p1634
sI1634
V\u67b7
p1635
sI1635
V\u67c4
p1636
sI1636
V\u67cf
p1637
sI1637
V\u67d0
p1638
sI1638
V\u67d1
p1639
sI1639
V\u67d2
p1640
sI1640
V\u67d3
p1641
sI1641
V\u67d4
p1642
sI1642
V\u67dc
p1643
sI1643
V\u67de
p1644
sI1644
V\u67e0
p1645
sI1645
V\u67e5
p1646
sI1646
V\u67ec
p1647
sI1647
V\u67ef
p1648
sI1648
V\u67f1
p1649
sI1649
V\u67f3
p1650
sI1650
V\u67f4
p1651
sI1651
V\u67ff
p1652
sI1652
V\u6805
p1653
sI1653
V\u6807
p1654
sI1654
V\u6808
p1655
sI1655
V\u680b
p1656
sI1656
V\u680f
p1657
sI1657
V\u6811
p1658
sI1658
V\u6813
p1659
sI1659
V\u6816
p1660
sI1660
V\u6817
p1661
sI1661
V\u6821
p1662
sI1662
V\u682a
p1663
sI1663
V\u6837
p1664
sI1664
V\u6838
p1665
sI1665
V\u6839
p1666
sI1666
V\u683c
p1667
sI1667
V\u683d
p1668
sI1668
V\u6842
p1669
sI1669
V\u6843
p1670
sI1670
V\u6845
p1671
sI1671
V\u6846
p1672
sI1672
V\u6848
p1673
sI1673
V\u684c
p1674
sI1674
V\u6850
p1675
sI1675
V\u6851
p1676
sI1676
V\u6853
p1677
sI1677
V\u6854
p1678
sI1678
V\u6863
p1679
sI1679
V\u6865
p1680
sI1680
V\u6868
p1681
sI1681
V\u6869
p1682
sI1682
V\u6876
p1683
sI1683
V\u6881
p1684
sI1684
V\u6885
p1685
sI1685
V\u6886
p1686
sI1686
V\u6897
p1687
sI1687
V\u68a2
p1688
sI1688
V\u68a6
p1689
sI1689
V\u68a7
p1690
sI1690
V\u68a8
p1691
sI1691
V\u68ad
p1692
sI1692
V\u68af
p1693
sI1693
V\u68b0
p1694
sI1694
V\u68b3
p1695
sI1695
V\u68c0
p1696
sI1696
V\u68c9
p1697
sI1697
V\u68cb
p1698
sI1698
V\u68cd
p1699
sI1699
V\u68d2
p1700
sI1700
V\u68d5
p1701
sI1701
V\u68d8
p1702
sI1702
V\u68da
p1703
sI1703
V\u68e0
p1704
sI1704
V\u68ee
p1705
sI1705
V\u68f1
p1706
sI1706
V\u68f5
p1707
sI1707
V\u68fa
p1708
sI1708
V\u6905
p1709
sI1709
V\u690d
p1710
sI1710
V\u690e
p1711
sI1711
V\u6912
p1712
sI1712
V\u692d
p1713
sI1713
V\u6930
p1714
sI1714
V\u693d
p1715
sI1715
V\u693f
p1716
sI1716
V\u6954
p1717
sI1717
V\u695a
p1718
sI1718
V\u695e
p1719
sI1719
V\u6977
p1720
sI1720
V\u697c
p1721
sI1721
V\u6982
p1722
sI1722
V\u6986
p1723
sI1723
V\u6994
p1724
sI1724
V\u699c
p1725
sI1725
V\u69a8
p1726
sI1726
V\u69b4
p1727
sI1727
V\u69b7
p1728
sI1728
V\u69d0
p1729
sI1729
V\u69db
p1730
sI1730
V\u69fd
p1731
sI1731
V\u6a0a
p1732
sI1732
V\u6a1f
p1733
sI1733
V\u6a21
p1734
sI1734
V\u6a2a
p1735
sI1735
V\u6a31
p1736
sI1736
V\u6a47
p1737
sI1737
V\u6a59
p1738
sI1738
V\u6a61
p1739
sI1739
V\u6a71
p1740
sI1740
V\u6a80
p1741
sI1741
V\u6a84
p1742
sI1742
V\u6aac
p1743
sI1743
V\u6b20
p1744
sI1744
V\u6b21
p1745
sI1745
V\u6b22
p1746
sI1746
V\u6b23
p1747
sI1747
V\u6b27
p1748
sI1748
V\u6b32
p1749
sI1749
V\u6b3a
p1750
sI1750
V\u6b3e
p1751
sI1751
V\u6b47
p1752
sI1752
V\u6b49
p1753
sI1753
V\u6b4c
p1754
sI1754
V\u6b62
p1755
sI1755
V\u6b63
p1756
sI1756
V\u6b64
p1757
sI1757
V\u6b65
p1758
sI1758
V\u6b66
p1759
sI1759
V\u6b67
p1760
sI1760
V\u6b6a
p1761
sI1761
V\u6b79
p1762
sI1762
V\u6b7b
p1763
sI1763
V\u6b7c
p1764
sI1764
V\u6b83
p1765
sI1765
V\u6b86
p1766
sI1766
V\u6b89
p1767
sI1767
V\u6b8a
p1768
sI1768
V\u6b8b
p1769
sI1769
V\u6b96
p1770
sI1770
V\u6bb4
p1771
sI1771
V\u6bb5
p1772
sI1772
V\u6bb7
p1773
sI1773
V\u6bbf
p1774
sI1774
V\u6bc1
p1775
sI1775
V\u6bc5
p1776
sI1776
V\u6bcb
p1777
sI1777
V\u6bcd
p1778
sI1778
V\u6bcf
p1779
sI1779
V\u6bd2
p1780
sI1780
V\u6bd4
p1781
sI1781
V\u6bd5
p1782
sI1782
V\u6bd6
p1783
sI1783
V\u6bd7
p1784
sI1784
V\u6bd9
p1785
sI1785
V\u6bdb
p1786
sI1786
V\u6be1
p1787
sI1787
V\u6beb
p1788
sI1788
V\u6bef
p1789
sI1789
V\u6c0f
p1790
sI1790
V\u6c11
p1791
sI1791
V\u6c13
p1792
sI1792
V\u6c14
p1793
sI1793
V\u6c16
p1794
sI1794
V\u6c1b
p1795
sI1795
V\u6c1f
p1796
sI1796
V\u6c22
p1797
sI1797
V\u6c26
p1798
sI1798
V\u6c27
p1799
sI1799
V\u6c28
p1800
sI1800
V\u6c2e
p1801
sI1801
V\u6c2f
p1802
sI1802
V\u6c30
p1803
sI1803
V\u6c34
p1804
sI1804
V\u6c38
p1805
sI1805
V\u6c40
p1806
sI1806
V\u6c41
p1807
sI1807
V\u6c42
p1808
sI1808
V\u6c47
p1809
sI1809
V\u6c49
p1810
sI1810
V\u6c50
p1811
sI1811
V\u6c55
p1812
sI1812
V\u6c57
p1813
sI1813
V\u6c5b
p1814
sI1814
V\u6c5d
p1815
sI1815
V\u6c5e
p1816
sI1816
V\u6c5f
p1817
sI1817
V\u6c60
p1818
sI1818
V\u6c61
p1819
sI1819
V\u6c64
p1820
sI1820
V\u6c6a
p1821
sI1821
V\u6c70
p1822
sI1822
V\u6c72
p1823
sI1823
V\u6c79
p1824
sI1824
V\u6c7d
p1825
sI1825
V\u6c7e
p1826
sI1826
V\u6c81
p1827
sI1827
V\u6c82
p1828
sI1828
V\u6c83
p1829
sI1829
V\u6c88
p1830
sI1830
V\u6c89
p1831
sI1831
V\u6c8f
p1832
sI1832
V\u6c99
p1833
sI1833
V\u6c9b
p1834
sI1834
V\u6c9f
p1835
sI1835
V\u6ca1
p1836
sI1836
V\u6ca4
p1837
sI1837
V\u6ca5
p1838
sI1838
V\u6ca6
p1839
sI1839
V\u6ca7
p1840
sI1840
V\u6caa
p1841
sI1841
V\u6cab
p1842
sI1842
V\u6cae
p1843
sI1843
V\u6cb3
p1844
sI1844
V\u6cb8
p1845
sI1845
V\u6cb9
p1846
sI1846
V\u6cbb
p1847
sI1847
V\u6cbc
p1848
sI1848
V\u6cbd
p1849
sI1849
V\u6cbe
p1850
sI1850
V\u6cbf
p1851
sI1851
V\u6cc4
p1852
sI1852
V\u6cc5
p1853
sI1853
V\u6cc9
p1854
sI1854
V\u6cca
p1855
sI1855
V\u6ccc
p1856
sI1856
V\u6cd5
p1857
sI1857
V\u6cdb
p1858
sI1858
V\u6cde
p1859
sI1859
V\u6ce1
p1860
sI1860
V\u6ce2
p1861
sI1861
V\u6ce3
p1862
sI1862
V\u6ce5
p1863
sI1863
V\u6ce8
p1864
sI1864
V\u6cea
p1865
sI1865
V\u6cf0
p1866
sI1866
V\u6cf3
p1867
sI1867
V\u6cf5
p1868
sI1868
V\u6cfb
p1869
sI1869
V\u6cfc
p1870
sI1870
V\u6cfd
p1871
sI1871
V\u6d01
p1872
sI1872
V\u6d0b
p1873
sI1873
V\u6d12
p1874
sI1874
V\u6d17
p1875
sI1875
V\u6d1b
p1876
sI1876
V\u6d1e
p1877
sI1877
V\u6d25
p1878
sI1878
V\u6d2a
p1879
sI1879
V\u6d31
p1880
sI1880
V\u6d32
p1881
sI1881
V\u6d3b
p1882
sI1882
V\u6d3c
p1883
sI1883
V\u6d3d
p1884
sI1884
V\u6d3e
p1885
sI1885
V\u6d41
p1886
sI1886
V\u6d45
p1887
sI1887
V\u6d46
p1888
sI1888
V\u6d47
p1889
sI1889
V\u6d4a
p1890
sI1890
V\u6d4b
p1891
sI1891
V\u6d4e
p1892
sI1892
V\u6d51
p1893
sI1893
V\u6d53
p1894
sI1894
V\u6d59
p1895
sI1895
V\u6d5a
p1896
sI1896
V\u6d66
p1897
sI1897
V\u6d69
p1898
sI1898
V\u6d6a
p1899
sI1899
V\u6d6e
p1900
sI1900
V\u6d74
p1901
sI1901
V\u6d77
p1902
sI1902
V\u6d78
p1903
sI1903
V\u6d82
p1904
sI1904
V\u6d85
p1905
sI1905
V\u6d88
p1906
sI1906
V\u6d89
p1907
sI1907
V\u6d8c
p1908
sI1908
V\u6d8e
p1909
sI1909
V\u6d95
p1910
sI1910
V\u6d9b
p1911
sI1911
V\u6d9d
p1912
sI1912
V\u6d9f
p1913
sI1913
V\u6da1
p1914
sI1914
V\u6da3
p1915
sI1915
V\u6da4
p1916
sI1916
V\u6da6
p1917
sI1917
V\u6da7
p1918
sI1918
V\u6da8
p1919
sI1919
V\u6da9
p1920
sI1920
V\u6daa
p1921
sI1921
V\u6daf
p1922
sI1922
V\u6db2
p1923
sI1923
V\u6db5
p1924
sI1924
V\u6db8
p1925
sI1925
V\u6dc0
p1926
sI1926
V\u6dc4
p1927
sI1927
V\u6dc6
p1928
sI1928
V\u6dcb
p1929
sI1929
V\u6dcc
p1930
sI1930
V\u6dd1
p1931
sI1931
V\u6dd6
p1932
sI1932
V\u6dd8
p1933
sI1933
V\u6de1
p1934
sI1934
V\u6de4
p1935
sI1935
V\u6deb
p1936
sI1936
V\u6dec
p1937
sI1937
V\u6dee
p1938
sI1938
V\u6df1
p1939
sI1939
V\u6df3
p1940
sI1940
V\u6df7
p1941
sI1941
V\u6df9
p1942
sI1942
V\u6dfb
p1943
sI1943
V\u6e05
p1944
sI1944
V\u6e0a
p1945
sI1945
V\u6e0d
p1946
sI1946
V\u6e10
p1947
sI1947
V\u6e14
p1948
sI1948
V\u6e17
p1949
sI1949
V\u6e1d
p1950
sI1950
V\u6e20
p1951
sI1951
V\u6e21
p1952
sI1952
V\u6e23
p1953
sI1953
V\u6e24
p1954
sI1954
V\u6e29
p1955
sI1955
V\u6e2d
p1956
sI1956
V\u6e2f
p1957
sI1957
V\u6e34
p1958
sI1958
V\u6e38
p1959
sI1959
V\u6e3a
p1960
sI1960
V\u6e43
p1961
sI1961
V\u6e4d
p1962
sI1962
V\u6e56
p1963
sI1963
V\u6e58
p1964
sI1964
V\u6e5b
p1965
sI1965
V\u6e7e
p1966
sI1966
V\u6e7f
p1967
sI1967
V\u6e83
p1968
sI1968
V\u6e85
p1969
sI1969
V\u6e89
p1970
sI1970
V\u6e90
p1971
sI1971
V\u6e9c
p1972
sI1972
V\u6ea2
p1973
sI1973
V\u6eaa
p1974
sI1974
V\u6eaf
p1975
sI1975
V\u6eb6
p1976
sI1976
V\u6eba
p1977
sI1977
V\u6ec1
p1978
sI1978
V\u6ec7
p1979
sI1979
V\u6ecb
p1980
sI1980
V\u6ed1
p1981
sI1981
V\u6ed3
p1982
sI1982
V\u6ed4
p1983
sI1983
V\u6eda
p1984
sI1984
V\u6ede
p1985
sI1985
V\u6ee1
p1986
sI1986
V\u6ee4
p1987
sI1987
V\u6ee5
p1988
sI1988
V\u6ee6
p1989
sI1989
V\u6ee8
p1990
sI1990
V\u6ee9
p1991
sI1991
V\u6ef4
p1992
sI1992
V\u6f02
p1993
sI1993
V\u6f06
p1994
sI1994
V\u6f0f
p1995
sI1995
V\u6f13
p1996
sI1996
V\u6f14
p1997
sI1997
V\u6f20
p1998
sI1998
V\u6f2b
p1999
sI1999
V\u6f31
p2000
sI2000
V\u6f33
p2001
sI2001
V\u6f3e
p2002
sI2002
V\u6f4d
p2003
sI2003
V\u6f58
p2004
sI2004
V\u6f5c
p2005
sI2005
V\u6f5e
p2006
sI2006
V\u6f66
p2007
sI2007
V\u6f6d
p2008
sI2008
V\u6f6e
p2009
sI2009
V\u6f84
p2010
sI2010
V\u6f88
p2011
sI2011
V\u6f8e
p2012
sI2012
V\u6f9c
p2013
sI2013
V\u6fa1
p2014
sI2014
V\u6fb3
p2015
sI2015
V\u6fc0
p2016
sI2016
V\u6fd2
p2017
sI2017
V\u7011
p2018
sI2018
V\u704c
p2019
sI2019
V\u706b
p2020
sI2020
V\u706d
p2021
sI2021
V\u706f
p2022
sI2022
V\u7070
p2023
sI2023
V\u7075
p2024
sI2024
V\u7076
p2025
sI2025
V\u7078
p2026
sI2026
V\u707c
p2027
sI2027
V\u707e
p2028
sI2028
V\u707f
p2029
sI2029
V\u7089
p2030
sI2030
V\u708a
p2031
sI2031
V\u708e
p2032
sI2032
V\u7092
p2033
sI2033
V\u7094
p2034
sI2034
V\u7095
p2035
sI2035
V\u7099
p2036
sI2036
V\u70ac
p2037
sI2037
V\u70ad
p2038
sI2038
V\u70ae
p2039
sI2039
V\u70af
p2040
sI2040
V\u70b3
p2041
sI2041
V\u70b8
p2042
sI2042
V\u70b9
p2043
sI2043
V\u70bc
p2044
sI2044
V\u70bd
p2045
sI2045
V\u70c1
p2046
sI2046
V\u70c2
p2047
sI2047
V\u70c3
p2048
sI2048
V\u70c8
p2049
sI2049
V\u70d8
p2050
sI2050
V\u70d9
p2051
sI2051
V\u70db
p2052
sI2052
V\u70df
p2053
sI2053
V\u70e4
p2054
sI2054
V\u70e6
p2055
sI2055
V\u70e7
p2056
sI2056
V\u70e9
p2057
sI2057
V\u70eb
p2058
sI2058
V\u70ec
p2059
sI2059
V\u70ed
p2060
sI2060
V\u70ef
p2061
sI2061
V\u70f7
p2062
sI2062
V\u70f9
p2063
sI2063
V\u70fd
p2064
sI2064
V\u7109
p2065
sI2065
V\u710a
p2066
sI2066
V\u7115
p2067
sI2067
V\u7119
p2068
sI2068
V\u711a
p2069
sI2069
V\u7126
p2070
sI2070
V\u7130
p2071
sI2071
V\u7136
p2072
sI2072
V\u714c
p2073
sI2073
V\u714e
p2074
sI2074
V\u715e
p2075
sI2075
V\u7164
p2076
sI2076
V\u7167
p2077
sI2077
V\u716e
p2078
sI2078
V\u717d
p2079
sI2079
V\u7184
p2080
sI2080
V\u718a
p2081
sI2081
V\u718f
p2082
sI2082
V\u7194
p2083
sI2083
V\u7199
p2084
sI2084
V\u719f
p2085
sI2085
V\u71ac
p2086
sI2086
V\u71c3
p2087
sI2087
V\u71ce
p2088
sI2088
V\u71d5
p2089
sI2089
V\u71e5
p2090
sI2090
V\u7206
p2091
sI2091
V\u722a
p2092
sI2092
V\u722c
p2093
sI2093
V\u7231
p2094
sI2094
V\u7235
p2095
sI2095
V\u7236
p2096
sI2096
V\u7237
p2097
sI2097
V\u7238
p2098
sI2098
V\u7239
p2099
sI2099
V\u723d
p2100
sI2100
V\u7247
p2101
sI2101
V\u7248
p2102
sI2102
V\u724c
p2103
sI2103
V\u7259
p2104
sI2104
V\u725b
p2105
sI2105
V\u725f
p2106
sI2106
V\u7261
p2107
sI2107
V\u7262
p2108
sI2108
V\u7267
p2109
sI2109
V\u7269
p2110
sI2110
V\u7272
p2111
sI2111
V\u7275
p2112
sI2112
V\u7279
p2113
sI2113
V\u727a
p2114
sI2114
V\u7280
p2115
sI2115
V\u7281
p2116
sI2116
V\u728a
p2117
sI2117
V\u72ac
p2118
sI2118
V\u72af
p2119
sI2119
V\u72b6
p2120
sI2120
V\u72b9
p2121
sI2121
V\u72c2
p2122
sI2122
V\u72c4
p2123
sI2123
V\u72c8
p2124
sI2124
V\u72d0
p2125
sI2125
V\u72d7
p2126
sI2126
V\u72d9
p2127
sI2127
V\u72de
p2128
sI2128
V\u72e0
p2129
sI2129
V\u72e1
p2130
sI2130
V\u72ec
p2131
sI2131
V\u72ed
p2132
sI2132
V\u72ee
p2133
sI2133
V\u72f0
p2134
sI2134
V\u72f1
p2135
sI2135
V\u72f8
p2136
sI2136
V\u72fc
p2137
sI2137
V\u730e
p2138
sI2138
V\u7316
p2139
sI2139
V\u731b
p2140
sI2140
V\u731c
p2141
sI2141
V\u7329
p2142
sI2142
V\u732a
p2143
sI2143
V\u732b
p2144
sI2144
V\u732e
p2145
sI2145
V\u7334
p2146
sI2146
V\u733e
p2147
sI2147
V\u733f
p2148
sI2148
V\u736d
p2149
sI2149
V\u7384
p2150
sI2150
V\u7387
p2151
sI2151
V\u7389
p2152
sI2152
V\u738b
p2153
sI2153
V\u7396
p2154
sI2154
V\u739b
p2155
sI2155
V\u73a9
p2156
sI2156
V\u73ab
p2157
sI2157
V\u73af
p2158
sI2158
V\u73b0
p2159
sI2159
V\u73b2
p2160
sI2160
V\u73bb
p2161
sI2161
V\u73ca
p2162
sI2162
V\u73cd
p2163
sI2163
V\u73d0
p2164
sI2164
V\u73e0
p2165
sI2165
V\u73ed
p2166
sI2166
V\u7403
p2167
sI2167
V\u7405
p2168
sI2168
V\u7406
p2169
sI2169
V\u7409
p2170
sI2170
V\u7410
p2171
sI2171
V\u7422
p2172
sI2172
V\u7433
p2173
sI2173
V\u7434
p2174
sI2174
V\u7435
p2175
sI2175
V\u7436
p2176
sI2176
V\u743c
p2177
sI2177
V\u745a
p2178
sI2178
V\u745e
p2179
sI2179
V\u745f
p2180
sI2180
V\u7470
p2181
sI2181
V\u7476
p2182
sI2182
V\u7483
p2183
sI2183
V\u74dc
p2184
sI2184
V\u74e2
p2185
sI2185
V\u74e3
p2186
sI2186
V\u74e4
p2187
sI2187
V\u74e6
p2188
sI2188
V\u74ee
p2189
sI2189
V\u74f6
p2190
sI2190
V\u74f7
p2191
sI2191
V\u7504
p2192
sI2192
V\u7518
p2193
sI2193
V\u751a
p2194
sI2194
V\u751c
p2195
sI2195
V\u751f
p2196
sI2196
V\u7525
p2197
sI2197
V\u7528
p2198
sI2198
V\u7529
p2199
sI2199
V\u752b
p2200
sI2200
V\u752d
p2201
sI2201
V\u7530
p2202
sI2202
V\u7531
p2203
sI2203
V\u7532
p2204
sI2204
V\u7533
p2205
sI2205
V\u7535
p2206
sI2206
V\u7537
p2207
sI2207
V\u7538
p2208
sI2208
V\u753b
p2209
sI2209
V\u7545
p2210
sI2210
V\u754c
p2211
sI2211
V\u754f
p2212
sI2212
V\u7554
p2213
sI2213
V\u7559
p2214
sI2214
V\u755c
p2215
sI2215
V\u7565
p2216
sI2216
V\u7566
p2217
sI2217
V\u756a
p2218
sI2218
V\u7574
p2219
sI2219
V\u7578
p2220
sI2220
V\u7586
p2221
sI2221
V\u758f
p2222
sI2222
V\u7591
p2223
sI2223
V\u7597
p2224
sI2224
V\u7599
p2225
sI2225
V\u759a
p2226
sI2226
V\u759f
p2227
sI2227
V\u75a1
p2228
sI2228
V\u75a4
p2229
sI2229
V\u75a5
p2230
sI2230
V\u75ab
p2231
sI2231
V\u75ae
p2232
sI2232
V\u75af
p2233
sI2233
V\u75b2
p2234
sI2234
V\u75b5
p2235
sI2235
V\u75b9
p2236
sI2236
V\u75bc
p2237
sI2237
V\u75bd
p2238
sI2238
V\u75be
p2239
sI2239
V\u75c5
p2240
sI2240
V\u75c7
p2241
sI2241
V\u75c8
p2242
sI2242
V\u75c9
p2243
sI2243
V\u75ca
p2244
sI2244
V\u75d2
p2245
sI2245
V\u75d4
p2246
sI2246
V\u75d5
p2247
sI2247
V\u75d8
p2248
sI2248
V\u75db
p2249
sI2249
V\u75de
p2250
sI2250
V\u75e2
p2251
sI2251
V\u75ea
p2252
sI2252
V\u75f0
p2253
sI2253
V\u75f4
p2254
sI2254
V\u75f9
p2255
sI2255
V\u7601
p2256
sI2256
V\u761f
p2257
sI2257
V\u7624
p2258
sI2258
V\u7626
p2259
sI2259
V\u7629
p2260
sI2260
V\u762a
p2261
sI2261
V\u762b
p2262
sI2262
V\u7634
p2263
sI2263
V\u7638
p2264
sI2264
V\u764c
p2265
sI2265
V\u7663
p2266
sI2266
V\u7678
p2267
sI2267
V\u767b
p2268
sI2268
V\u767d
p2269
sI2269
V\u767e
p2270
sI2270
V\u7682
p2271
sI2271
V\u7684
p2272
sI2272
V\u7686
p2273
sI2273
V\u7687
p2274
sI2274
V\u768b
p2275
sI2275
V\u7691
p2276
sI2276
V\u7696
p2277
sI2277
V\u76ae
p2278
sI2278
V\u76b1
p2279
sI2279
V\u76bf
p2280
sI2280
V\u76c2
p2281
sI2281
V\u76c5
p2282
sI2282
V\u76c6
p2283
sI2283
V\u76c8
p2284
sI2284
V\u76ca
p2285
sI2285
V\u76ce
p2286
sI2286
V\u76cf
p2287
sI2287
V\u76d0
p2288
sI2288
V\u76d1
p2289
sI2289
V\u76d2
p2290
sI2290
V\u76d4
p2291
sI2291
V\u76d6
p2292
sI2292
V\u76d7
p2293
sI2293
V\u76d8
p2294
sI2294
V\u76db
p2295
sI2295
V\u76df
p2296
sI2296
V\u76ee
p2297
sI2297
V\u76ef
p2298
sI2298
V\u76f2
p2299
sI2299
V\u76f4
p2300
sI2300
V\u76f8
p2301
sI2301
V\u76fc
p2302
sI2302
V\u76fe
p2303
sI2303
V\u7701
p2304
sI2304
V\u7709
p2305
sI2305
V\u770b
p2306
sI2306
V\u771f
p2307
sI2307
V\u7720
p2308
sI2308
V\u7728
p2309
sI2309
V\u7729
p2310
sI2310
V\u772f
p2311
sI2311
V\u7736
p2312
sI2312
V\u7737
p2313
sI2313
V\u773a
p2314
sI2314
V\u773c
p2315
sI2315
V\u7740
p2316
sI2316
V\u7741
p2317
sI2317
V\u775b
p2318
sI2318
V\u7761
p2319
sI2319
V\u7763
p2320
sI2320
V\u7766
p2321
sI2321
V\u776b
p2322
sI2322
V\u776c
p2323
sI2323
V\u7779
p2324
sI2324
V\u7784
p2325
sI2325
V\u7785
p2326
sI2326
V\u778e
p2327
sI2327
V\u7792
p2328
sI2328
V\u77a5
p2329
sI2329
V\u77a7
p2330
sI2330
V\u77a9
p2331
sI2331
V\u77aa
p2332
sI2332
V\u77ac
p2333
sI2333
V\u77b3
p2334
sI2334
V\u77bb
p2335
sI2335
V\u77d7
p2336
sI2336
V\u77db
p2337
sI2337
V\u77e2
p2338
sI2338
V\u77e3
p2339
sI2339
V\u77e5
p2340
sI2340
V\u77e9
p2341
sI2341
V\u77eb
p2342
sI2342
V\u77ed
p2343
sI2343
V\u77ee
p2344
sI2344
V\u77f3
p2345
sI2345
V\u77fd
p2346
sI2346
V\u77fe
p2347
sI2347
V\u77ff
p2348
sI2348
V\u7801
p2349
sI2349
V\u7802
p2350
sI2350
V\u780c
p2351
sI2351
V\u780d
p2352
sI2352
V\u7812
p2353
sI2353
V\u7814
p2354
sI2354
V\u7816
p2355
sI2355
V\u781a
p2356
sI2356
V\u7827
p2357
sI2357
V\u7830
p2358
sI2358
V\u7834
p2359
sI2359
V\u7837
p2360
sI2360
V\u7838
p2361
sI2361
V\u783e
p2362
sI2362
V\u7840
p2363
sI2363
V\u7845
p2364
sI2364
V\u7852
p2365
sI2365
V\u7855
p2366
sI2366
V\u785d
p2367
sI2367
V\u786b
p2368
sI2368
V\u786c
p2369
sI2369
V\u786e
p2370
sI2370
V\u7877
p2371
sI2371
V\u787c
p2372
sI2372
V\u7889
p2373
sI2373
V\u788c
p2374
sI2374
V\u788d
p2375
sI2375
V\u788e
p2376
sI2376
V\u7891
p2377
sI2377
V\u7897
p2378
sI2378
V\u7898
p2379
sI2379
V\u789f
p2380
sI2380
V\u78a7
p2381
sI2381
V\u78b0
p2382
sI2382
V\u78b1
p2383
sI2383
V\u78b3
p2384
sI2384
V\u78b4
p2385
sI2385
V\u78be
p2386
sI2386
V\u78c1
p2387
sI2387
V\u78c5
p2388
sI2388
V\u78ca
p2389
sI2389
V\u78cb
p2390
sI2390
V\u78d0
p2391
sI2391
V\u78d5
p2392
sI2392
V\u78e8
p2393
sI2393
V\u78f7
p2394
sI2394
V\u78fa
p2395
sI2395
V\u7901
p2396
sI2396
V\u793a
p2397
sI2397
V\u793c
p2398
sI2398
V\u793e
p2399
sI2399
V\u7941
p2400
sI2400
V\u7948
p2401
sI2401
V\u7956
p2402
sI2402
V\u795d
p2403
sI2403
V\u795e
p2404
sI2404
V\u795f
p2405
sI2405
V\u7965
p2406
sI2406
V\u7968
p2407
sI2407
V\u796d
p2408
sI2408
V\u7977
p2409
sI2409
V\u7978
p2410
sI2410
V\u7981
p2411
sI2411
V\u7984
p2412
sI2412
V\u798f
p2413
sI2413
V\u79b9
p2414
sI2414
V\u79bb
p2415
sI2415
V\u79bd
p2416
sI2416
V\u79be
p2417
sI2417
V\u79c0
p2418
sI2418
V\u79c1
p2419
sI2419
V\u79c3
p2420
sI2420
V\u79c6
p2421
sI2421
V\u79c9
p2422
sI2422
V\u79cb
p2423
sI2423
V\u79cd
p2424
sI2424
V\u79d1
p2425
sI2425
V\u79d2
p2426
sI2426
V\u79d8
p2427
sI2427
V\u79df
p2428
sI2428
V\u79e4
p2429
sI2429
V\u79e6
p2430
sI2430
V\u79e7
p2431
sI2431
V\u79e9
p2432
sI2432
V\u79ef
p2433
sI2433
V\u79f0
p2434
sI2434
V\u79f8
p2435
sI2435
V\u79fb
p2436
sI2436
V\u79fd
p2437
sI2437
V\u7a00
p2438
sI2438
V\u7a0b
p2439
sI2439
V\u7a0d
p2440
sI2440
V\u7a0e
p2441
sI2441
V\u7a17
p2442
sI2442
V\u7a1a
p2443
sI2443
V\u7a20
p2444
sI2444
V\u7a33
p2445
sI2445
V\u7a3b
p2446
sI2446
V\u7a3c
p2447
sI2447
V\u7a3d
p2448
sI2448
V\u7a3f
p2449
sI2449
V\u7a46
p2450
sI2450
V\u7a57
p2451
sI2451
V\u7a74
p2452
sI2452
V\u7a76
p2453
sI2453
V\u7a77
p2454
sI2454
V\u7a7a
p2455
sI2455
V\u7a7f
p2456
sI2456
V\u7a81
p2457
sI2457
V\u7a83
p2458
sI2458
V\u7a84
p2459
sI2459
V\u7a8d
p2460
sI2460
V\u7a91
p2461
sI2461
V\u7a92
p2462
sI2462
V\u7a96
p2463
sI2463
V\u7a97
p2464
sI2464
V\u7a98
p2465
sI2465
V\u7a9c
p2466
sI2466
V\u7a9d
p2467
sI2467
V\u7a9f
p2468
sI2468
V\u7aa5
p2469
sI2469
V\u7abf
p2470
sI2470
V\u7acb
p2471
sI2471
V\u7ad6
p2472
sI2472
V\u7ad9
p2473
sI2473
V\u7ade
p2474
sI2474
V\u7adf
p2475
sI2475
V\u7ae0
p2476
sI2476
V\u7ae3
p2477
sI2477
V\u7ae5
p2478
sI2478
V\u7aed
p2479
sI2479
V\u7aef
p2480
sI2480
V\u7af9
p2481
sI2481
V\u7aff
p2482
sI2482
V\u7b06
p2483
sI2483
V\u7b0b
p2484
sI2484
V\u7b11
p2485
sI2485
V\u7b14
p2486
sI2486
V\u7b1b
p2487
sI2487
V\u7b26
p2488
sI2488
V\u7b28
p2489
sI2489
V\u7b2c
p2490
sI2490
V\u7b3a
p2491
sI2491
V\u7b3c
p2492
sI2492
V\u7b49
p2493
sI2493
V\u7b4b
p2494
sI2494
V\u7b4f
p2495
sI2495
V\u7b50
p2496
sI2496
V\u7b51
p2497
sI2497
V\u7b52
p2498
sI2498
V\u7b54
p2499
sI2499
V\u7b56
p2500
sI2500
V\u7b5b
p2501
sI2501
V\u7b77
p2502
sI2502
V\u7b79
p2503
sI2503
V\u7b7e
p2504
sI2504
V\u7b80
p2505
sI2505
V\u7b8d
p2506
sI2506
V\u7b94
p2507
sI2507
V\u7b95
p2508
sI2508
V\u7b97
p2509
sI2509
V\u7ba1
p2510
sI2510
V\u7ba9
p2511
sI2511
V\u7bad
p2512
sI2512
V\u7bb1
p2513
sI2513
V\u7bc6
p2514
sI2514
V\u7bc7
p2515
sI2515
V\u7bd3
p2516
sI2516
V\u7bd9
p2517
sI2517
V\u7be1
p2518
sI2518
V\u7bee
p2519
sI2519
V\u7bf1
p2520
sI2520
V\u7bf7
p2521
sI2521
V\u7c07
p2522
sI2522
V\u7c27
p2523
sI2523
V\u7c3f
p2524
sI2524
V\u7c4d
p2525
sI2525
V\u7c73
p2526
sI2526
V\u7c7b
p2527
sI2527
V\u7c7d
p2528
sI2528
V\u7c89
p2529
sI2529
V\u7c92
p2530
sI2530
V\u7c95
p2531
sI2531
V\u7c97
p2532
sI2532
V\u7c98
p2533
sI2533
V\u7c9f
p2534
sI2534
V\u7ca4
p2535
sI2535
V\u7ca5
p2536
sI2536
V\u7caa
p2537
sI2537
V\u7cae
p2538
sI2538
V\u7cb1
p2539
sI2539
V\u7cb3
p2540
sI2540
V\u7cb9
p2541
sI2541
V\u7cbe
p2542
sI2542
V\u7cca
p2543
sI2543
V\u7cd5
p2544
sI2544
V\u7cd6
p2545
sI2545
V\u7cd9
p2546
sI2546
V\u7cdc
p2547
sI2547
V\u7cdf
p2548
sI2548
V\u7ce0
p2549
sI2549
V\u7cef
p2550
sI2550
V\u7cfb
p2551
sI2551
V\u7d0a
p2552
sI2552
V\u7d20
p2553
sI2553
V\u7d22
p2554
sI2554
V\u7d27
p2555
sI2555
V\u7d2b
p2556
sI2556
V\u7d2f
p2557
sI2557
V\u7d6e
p2558
sI2558
V\u7e41
p2559
sI2559
V\u7e82
p2560
sI2560
V\u7ea0
p2561
sI2561
V\u7ea2
p2562
sI2562
V\u7ea4
p2563
sI2563
V\u7ea6
p2564
sI2564
V\u7ea7
p2565
sI2565
V\u7eaa
p2566
sI2566
V\u7eab
p2567
sI2567
V\u7eac
p2568
sI2568
V\u7eaf
p2569
sI2569
V\u7eb1
p2570
sI2570
V\u7eb2
p2571
sI2571
V\u7eb3
p2572
sI2572
V\u7eb5
p2573
sI2573
V\u7eb6
p2574
sI2574
V\u7eb7
p2575
sI2575
V\u7eb8
p2576
sI2576
V\u7eb9
p2577
sI2577
V\u7eba
p2578
sI2578
V\u7ebd
p2579
sI2579
V\u7ebf
p2580
sI2580
V\u7ec3
p2581
sI2581
V\u7ec4
p2582
sI2582
V\u7ec5
p2583
sI2583
V\u7ec6
p2584
sI2584
V\u7ec7
p2585
sI2585
V\u7ec8
p2586
sI2586
V\u7eca
p2587
sI2587
V\u7ecd
p2588
sI2588
V\u7ece
p2589
sI2589
V\u7ecf
p2590
sI2590
V\u7ed1
p2591
sI2591
V\u7ed2
p2592
sI2592
V\u7ed3
p2593
sI2593
V\u7ed5
p2594
sI2594
V\u7ed8
p2595
sI2595
V\u7ed9
p2596
sI2596
V\u7eda
p2597
sI2597
V\u7edc
p2598
sI2598
V\u7edd
p2599
sI2599
V\u7ede
p2600
sI2600
V\u7edf
p2601
sI2601
V\u7ee2
p2602
sI2602
V\u7ee3
p2603
sI2603
V\u7ee5
p2604
sI2604
V\u7ee6
p2605
sI2605
V\u7ee7
p2606
sI2606
V\u7ee9
p2607
sI2607
V\u7eea
p2608
sI2608
V\u7eed
p2609
sI2609
V\u7ef0
p2610
sI2610
V\u7ef3
p2611
sI2611
V\u7ef4
p2612
sI2612
V\u7ef5
p2613
sI2613
V\u7ef7
p2614
sI2614
V\u7ef8
p2615
sI2615
V\u7efc
p2616
sI2616
V\u7efd
p2617
sI2617
V\u7eff
p2618
sI2618
V\u7f00
p2619
sI2619
V\u7f04
p2620
sI2620
V\u7f05
p2621
sI2621
V\u7f06
p2622
sI2622
V\u7f09
p2623
sI2623
V\u7f0e
p2624
sI2624
V\u7f13
p2625
sI2625
V\u7f14
p2626
sI2626
V\u7f15
p2627
sI2627
V\u7f16
p2628
sI2628
V\u7f18
p2629
sI2629
V\u7f1a
p2630
sI2630
V\u7f1d
p2631
sI2631
V\u7f20
p2632
sI2632
V\u7f28
p2633
sI2633
V\u7f29
p2634
sI2634
V\u7f2e
p2635
sI2635
V\u7f34
p2636
sI2636
V\u7f38
p2637
sI2637
V\u7f3a
p2638
sI2638
V\u7f50
p2639
sI2639
V\u7f51
p2640
sI2640
V\u7f55
p2641
sI2641
V\u7f57
p2642
sI2642
V\u7f5a
p2643
sI2643
V\u7f62
p2644
sI2644
V\u7f69
p2645
sI2645
V\u7f6a
p2646
sI2646
V\u7f6e
p2647
sI2647
V\u7f72
p2648
sI2648
V\u7f8a
p2649
sI2649
V\u7f8c
p2650
sI2650
V\u7f8e
p2651
sI2651
V\u7f94
p2652
sI2652
V\u7f9a
p2653
sI2653
V\u7f9e
p2654
sI2654
V\u7fa1
p2655
sI2655
V\u7fa4
p2656
sI2656
V\u7fb9
p2657
sI2657
V\u7fbd
p2658
sI2658
V\u7fc1
p2659
sI2659
V\u7fc5
p2660
sI2660
V\u7fcc
p2661
sI2661
V\u7fd4
p2662
sI2662
V\u7fd8
p2663
sI2663
V\u7fdf
p2664
sI2664
V\u7fe0
p2665
sI2665
V\u7ff0
p2666
sI2666
V\u7ff1
p2667
sI2667
V\u7ffb
p2668
sI2668
V\u7ffc
p2669
sI2669
V\u8000
p2670
sI2670
V\u8001
p2671
sI2671
V\u8003
p2672
sI2672
V\u8005
p2673
sI2673
V\u800c
p2674
sI2674
V\u800d
p2675
sI2675
V\u8010
p2676
sI2676
V\u8015
p2677
sI2677
V\u8017
p2678
sI2678
V\u8018
p2679
sI2679
V\u8019
p2680
sI2680
V\u802a
p2681
sI2681
V\u8033
p2682
sI2682
V\u8036
p2683
sI2683
V\u8038
p2684
sI2684
V\u803b
p2685
sI2685
V\u803d
p2686
sI2686
V\u803f
p2687
sI2687
V\u8042
p2688
sI2688
V\u804a
p2689
sI2689
V\u804b
p2690
sI2690
V\u804c
p2691
sI2691
V\u8054
p2692
sI2692
V\u8058
p2693
sI2693
V\u805a
p2694
sI2694
V\u806a
p2695
sI2695
V\u8083
p2696
sI2696
V\u8084
p2697
sI2697
V\u8086
p2698
sI2698
V\u8087
p2699
sI2699
V\u8089
p2700
sI2700
V\u808b
p2701
sI2701
V\u808c
p2702
sI2702
V\u8096
p2703
sI2703
V\u8098
p2704
sI2704
V\u809a
p2705
sI2705
V\u809b
p2706
sI2706
V\u809d
p2707
sI2707
V\u80a0
p2708
sI2708
V\u80a1
p2709
sI2709
V\u80a2
p2710
sI2710
V\u80a4
p2711
sI2711
V\u80a5
p2712
sI2712
V\u80a9
p2713
sI2713
V\u80aa
p2714
sI2714
V\u80ae
p2715
sI2715
V\u80af
p2716
sI2716
V\u80b2
p2717
sI2717
V\u80ba
p2718
sI2718
V\u80be
p2719
sI2719
V\u80bf
p2720
sI2720
V\u80c0
p2721
sI2721
V\u80c1
p2722
sI2722
V\u80c3
p2723
sI2723
V\u80c6
p2724
sI2724
V\u80cc
p2725
sI2725
V\u80ce
p2726
sI2726
V\u80d6
p2727
sI2727
V\u80da
p2728
sI2728
V\u80dc
p2729
sI2729
V\u80de
p2730
sI2730
V\u80e1
p2731
sI2731
V\u80ef
p2732
sI2732
V\u80f0
p2733
sI2733
V\u80f3
p2734
sI2734
V\u80f6
p2735
sI2735
V\u80f8
p2736
sI2736
V\u80fa
p2737
sI2737
V\u80fd
p2738
sI2738
V\u8102
p2739
sI2739
V\u8106
p2740
sI2740
V\u8109
p2741
sI2741
V\u810a
p2742
sI2742
V\u810f
p2743
sI2743
V\u8110
p2744
sI2744
V\u8111
p2745
sI2745
V\u8113
p2746
sI2746
V\u8116
p2747
sI2747
V\u811a
p2748
sI2748
V\u812f
p2749
sI2749
V\u8131
p2750
sI2750
V\u8138
p2751
sI2751
V\u813e
p2752
sI2752
V\u8146
p2753
sI2753
V\u814a
p2754
sI2754
V\u814b
p2755
sI2755
V\u8150
p2756
sI2756
V\u8151
p2757
sI2757
V\u8154
p2758
sI2758
V\u8155
p2759
sI2759
V\u8165
p2760
sI2760
V\u816e
p2761
sI2761
V\u8170
p2762
sI2762
V\u8179
p2763
sI2763
V\u817a
p2764
sI2764
V\u817b
p2765
sI2765
V\u817e
p2766
sI2766
V\u817f
p2767
sI2767
V\u8180
p2768
sI2768
V\u818a
p2769
sI2769
V\u818f
p2770
sI2770
V\u8198
p2771
sI2771
V\u819b
p2772
sI2772
V\u819c
p2773
sI2773
V\u819d
p2774
sI2774
V\u81a8
p2775
sI2775
V\u81b3
p2776
sI2776
V\u81c0
p2777
sI2777
V\u81c2
p2778
sI2778
V\u81c3
p2779
sI2779
V\u81c6
p2780
sI2780
V\u81e3
p2781
sI2781
V\u81ea
p2782
sI2782
V\u81ed
p2783
sI2783
V\u81f3
p2784
sI2784
V\u81f4
p2785
sI2785
V\u81fb
p2786
sI2786
V\u81fc
p2787
sI2787
V\u8200
p2788
sI2788
V\u8205
p2789
sI2789
V\u8206
p2790
sI2790
V\u820c
p2791
sI2791
V\u820d
p2792
sI2792
V\u8212
p2793
sI2793
V\u8214
p2794
sI2794
V\u821c
p2795
sI2795
V\u821e
p2796
sI2796
V\u821f
p2797
sI2797
V\u822a
p2798
sI2798
V\u822c
p2799
sI2799
V\u8230
p2800
sI2800
V\u8231
p2801
sI2801
V\u8235
p2802
sI2802
V\u8236
p2803
sI2803
V\u8237
p2804
sI2804
V\u8239
p2805
sI2805
V\u8247
p2806
sI2806
V\u8258
p2807
sI2807
V\u826f
p2808
sI2808
V\u8270
p2809
sI2809
V\u8272
p2810
sI2810
V\u8273
p2811
sI2811
V\u827a
p2812
sI2812
V\u827e
p2813
sI2813
V\u8282
p2814
sI2814
V\u828b
p2815
sI2815
V\u828d
p2816
sI2816
V\u8292
p2817
sI2817
V\u829c
p2818
sI2818
V\u829d
p2819
sI2819
V\u82a5
p2820
sI2820
V\u82a6
p2821
sI2821
V\u82ac
p2822
sI2822
V\u82ad
p2823
sI2823
V\u82af
p2824
sI2824
V\u82b1
p2825
sI2825
V\u82b3
p2826
sI2826
V\u82b9
p2827
sI2827
V\u82bd
p2828
sI2828
V\u82c7
p2829
sI2829
V\u82cd
p2830
sI2830
V\u82cf
p2831
sI2831
V\u82d1
p2832
sI2832
V\u82d4
p2833
sI2833
V\u82d7
p2834
sI2834
V\u82db
p2835
sI2835
V\u82de
p2836
sI2836
V\u82df
p2837
sI2837
V\u82e5
p2838
sI2838
V\u82e6
p2839
sI2839
V\u82eb
p2840
sI2840
V\u82ef
p2841
sI2841
V\u82f1
p2842
sI2842
V\u82f9
p2843
sI2843
V\u8301
p2844
sI2844
V\u8302
p2845
sI2845
V\u8303
p2846
sI2846
V\u8304
p2847
sI2847
V\u8305
p2848
sI2848
V\u830e
p2849
sI2849
V\u8327
p2850
sI2850
V\u8328
p2851
sI2851
V\u832b
p2852
sI2852
V\u832c
p2853
sI2853
V\u8335
p2854
sI2854
V\u8336
p2855
sI2855
V\u8338
p2856
sI2856
V\u8339
p2857
sI2857
V\u8346
p2858
sI2858
V\u8349
p2859
sI2859
V\u8350
p2860
sI2860
V\u8352
p2861
sI2861
V\u8354
p2862
sI2862
V\u835a
p2863
sI2863
V\u8361
p2864
sI2864
V\u8363
p2865
sI2865
V\u8364
p2866
sI2866
V\u8367
p2867
sI2867
V\u836b
p2868
sI2868
V\u836f
p2869
sI2869
V\u8377
p2870
sI2870
V\u8386
p2871
sI2871
V\u8389
p2872
sI2872
V\u838e
p2873
sI2873
V\u83ab
p2874
sI2874
V\u83b1
p2875
sI2875
V\u83b2
p2876
sI2876
V\u83b7
p2877
sI2877
V\u83b9
p2878
sI2878
V\u83bd
p2879
sI2879
V\u83c7
p2880
sI2880
V\u83ca
p2881
sI2881
V\u83cc
p2882
sI2882
V\u83cf
p2883
sI2883
V\u83dc
p2884
sI2884
V\u83e0
p2885
sI2885
V\u83e9
p2886
sI2886
V\u83f1
p2887
sI2887
V\u83f2
p2888
sI2888
V\u8404
p2889
sI2889
V\u840c
p2890
sI2890
V\u840d
p2891
sI2891
V\u840e
p2892
sI2892
V\u841d
p2893
sI2893
V\u8424
p2894
sI2894
V\u8425
p2895
sI2895
V\u8427
p2896
sI2896
V\u8428
p2897
sI2897
V\u843d
p2898
sI2898
V\u8457
p2899
sI2899
V\u845b
p2900
sI2900
V\u8461
p2901
sI2901
V\u8463
p2902
sI2902
V\u846b
p2903
sI2903
V\u846c
p2904
sI2904
V\u8471
p2905
sI2905
V\u8475
p2906
sI2906
V\u8482
p2907
sI2907
V\u848b
p2908
sI2908
V\u8499
p2909
sI2909
V\u849c
p2910
sI2910
V\u84b2
p2911
sI2911
V\u84b8
p2912
sI2912
V\u84c4
p2913
sI2913
V\u84c9
p2914
sI2914
V\u84d1
p2915
sI2915
V\u84d6
p2916
sI2916
V\u84dd
p2917
sI2917
V\u84df
p2918
sI2918
V\u84ec
p2919
sI2919
V\u8511
p2920
sI2920
V\u8513
p2921
sI2921
V\u8517
p2922
sI2922
V\u851a
p2923
sI2923
V\u8521
p2924
sI2924
V\u852b
p2925
sI2925
V\u852c
p2926
sI2926
V\u8537
p2927
sI2927
V\u853c
p2928
sI2928
V\u853d
p2929
sI2929
V\u8549
p2930
sI2930
V\u854a
p2931
sI2931
V\u8574
p2932
sI2932
V\u857e
p2933
sI2933
V\u8584
p2934
sI2934
V\u859b
p2935
sI2935
V\u85aa
p2936
sI2936
V\u85af
p2937
sI2937
V\u85c9
p2938
sI2938
V\u85cf
p2939
sI2939
V\u85d0
p2940
sI2940
V\u85d5
p2941
sI2941
V\u85e4
p2942
sI2942
V\u85e9
p2943
sI2943
V\u85fb
p2944
sI2944
V\u8611
p2945
sI2945
V\u8638
p2946
sI2946
V\u864e
p2947
sI2947
V\u864f
p2948
sI2948
V\u8650
p2949
sI2949
V\u8651
p2950
sI2950
V\u865a
p2951
sI2951
V\u865e
p2952
sI2952
V\u866b
p2953
sI2953
V\u8671
p2954
sI2954
V\u8679
p2955
sI2955
V\u867d
p2956
sI2956
V\u867e
p2957
sI2957
V\u8680
p2958
sI2958
V\u8681
p2959
sI2959
V\u8682
p2960
sI2960
V\u868a
p2961
sI2961
V\u868c
p2962
sI2962
V\u8695
p2963
sI2963
V\u869c
p2964
sI2964
V\u86a4
p2965
sI2965
V\u86c0
p2966
sI2966
V\u86c6
p2967
sI2967
V\u86c7
p2968
sI2968
V\u86ca
p2969
sI2969
V\u86cb
p2970
sI2970
V\u86d4
p2971
sI2971
V\u86d9
p2972
sI2972
V\u86db
p2973
sI2973
V\u86e4
p2974
sI2974
V\u86ee
p2975
sI2975
V\u86f0
p2976
sI2976
V\u86f9
p2977
sI2977
V\u86fe
p2978
sI2978
V\u8700
p2979
sI2979
V\u8702
p2980
sI2980
V\u8712
p2981
sI2981
V\u8715
p2982
sI2982
V\u8717
p2983
sI2983
V\u8718
p2984
sI2984
V\u871c
p2985
sI2985
V\u8721
p2986
sI2986
V\u8747
p2987
sI2987
V\u8749
p2988
sI2988
V\u874e
p2989
sI2989
V\u8757
p2990
sI2990
V\u8774
p2991
sI2991
V\u8776
p2992
sI2992
V\u878d
p2993
sI2993
V\u879f
p2994
sI2994
V\u87ba
p2995
sI2995
V\u87f9
p2996
sI2996
V\u8815
p2997
sI2997
V\u8822
p2998
sI2998
V\u8840
p2999
sI2999
V\u8845
p3000
sI3000
V\u884c
p3001
sI3001
V\u884d
p3002
sI3002
V\u8854
p3003
sI3003
V\u8857
p3004
sI3004
V\u8859
p3005
sI3005
V\u8861
p3006
sI3006
V\u8863
p3007
sI3007
V\u8865
p3008
sI3008
V\u8868
p3009
sI3009
V\u886b
p3010
sI3010
V\u886c
p3011
sI3011
V\u8870
p3012
sI3012
V\u8877
p3013
sI3013
V\u8881
p3014
sI3014
V\u8884
p3015
sI3015
V\u888b
p3016
sI3016
V\u888d
p3017
sI3017
V\u8892
p3018
sI3018
V\u8896
p3019
sI3019
V\u889c
p3020
sI3020
V\u88ab
p3021
sI3021
V\u88ad
p3022
sI3022
V\u88b1
p3023
sI3023
V\u88c1
p3024
sI3024
V\u88c2
p3025
sI3025
V\u88c5
p3026
sI3026
V\u88d4
p3027
sI3027
V\u88d5
p3028
sI3028
V\u88d9
p3029
sI3029
V\u88e4
p3030
sI3030
V\u88f3
p3031
sI3031
V\u88f4
p3032
sI3032
V\u88f8
p3033
sI3033
V\u88f9
p3034
sI3034
V\u8902
p3035
sI3035
V\u8910
p3036
sI3036
V\u8912
p3037
sI3037
V\u8925
p3038
sI3038
V\u892a
p3039
sI3039
V\u8944
p3040
sI3040
V\u895f
p3041
sI3041
V\u897f
p3042
sI3042
V\u8981
p3043
sI3043
V\u8986
p3044
sI3044
V\u89c1
p3045
sI3045
V\u89c2
p3046
sI3046
V\u89c4
p3047
sI3047
V\u89c5
p3048
sI3048
V\u89c6
p3049
sI3049
V\u89c8
p3050
sI3050
V\u89c9
p3051
sI3051
V\u89d2
p3052
sI3052
V\u89e3
p3053
sI3053
V\u89e6
p3054
sI3054
V\u8a00
p3055
sI3055
V\u8a79
p3056
sI3056
V\u8a89
p3057
sI3057
V\u8a8a
p3058
sI3058
V\u8a93
p3059
sI3059
V\u8b66
p3060
sI3060
V\u8b6c
p3061
sI3061
V\u8ba1
p3062
sI3062
V\u8ba2
p3063
sI3063
V\u8ba3
p3064
sI3064
V\u8ba4
p3065
sI3065
V\u8ba5
p3066
sI3066
V\u8ba8
p3067
sI3067
V\u8ba9
p3068
sI3068
V\u8bab
p3069
sI3069
V\u8bad
p3070
sI3070
V\u8bae
p3071
sI3071
V\u8baf
p3072
sI3072
V\u8bb0
p3073
sI3073
V\u8bb2
p3074
sI3074
V\u8bb3
p3075
sI3075
V\u8bb6
p3076
sI3076
V\u8bb8
p3077
sI3077
V\u8bb9
p3078
sI3078
V\u8bba
p3079
sI3079
V\u8bbc
p3080
sI3080
V\u8bbd
p3081
sI3081
V\u8bbe
p3082
sI3082
V\u8bbf
p3083
sI3083
V\u8bc0
p3084
sI3084
V\u8bc1
p3085
sI3085
V\u8bc4
p3086
sI3086
V\u8bc5
p3087
sI3087
V\u8bc6
p3088
sI3088
V\u8bc8
p3089
sI3089
V\u8bc9
p3090
sI3090
V\u8bca
p3091
sI3091
V\u8bcc
p3092
sI3092
V\u8bcd
p3093
sI3093
V\u8bd1
p3094
sI3094
V\u8bd5
p3095
sI3095
V\u8bd7
p3096
sI3096
V\u8bda
p3097
sI3097
V\u8bdb
p3098
sI3098
V\u8bdd
p3099
sI3099
V\u8bde
p3100
sI3100
V\u8be1
p3101
sI3101
V\u8be2
p3102
sI3102
V\u8be3
p3103
sI3103
V\u8be5
p3104
sI3104
V\u8be6
p3105
sI3105
V\u8be7
p3106
sI3106
V\u8beb
p3107
sI3107
V\u8bec
p3108
sI3108
V\u8bed
p3109
sI3109
V\u8bef
p3110
sI3110
V\u8bf1
p3111
sI3111
V\u8bf2
p3112
sI3112
V\u8bf4
p3113
sI3113
V\u8bf5
p3114
sI3114
V\u8bf7
p3115
sI3115
V\u8bf8
p3116
sI3116
V\u8bfa
p3117
sI3117
V\u8bfb
p3118
sI3118
V\u8bfd
p3119
sI3119
V\u8bfe
p3120
sI3120
V\u8c01
p3121
sI3121
V\u8c03
p3122
sI3122
V\u8c05
p3123
sI3123
V\u8c06
p3124
sI3124
V\u8c08
p3125
sI3125
V\u8c0a
p3126
sI3126
V\u8c0b
p3127
sI3127
V\u8c0d
p3128
sI3128
V\u8c0e
p3129
sI3129
V\u8c10
p3130
sI3130
V\u8c13
p3131
sI3131
V\u8c17
p3132
sI3132
V\u8c1a
p3133
sI3133
V\u8c1c
p3134
sI3134
V\u8c22
p3135
sI3135
V\u8c23
p3136
sI3136
V\u8c24
p3137
sI3137
V\u8c26
p3138
sI3138
V\u8c28
p3139
sI3139
V\u8c29
p3140
sI3140
V\u8c2c
p3141
sI3141
V\u8c2d
p3142
sI3142
V\u8c30
p3143
sI3143
V\u8c31
p3144
sI3144
V\u8c34
p3145
sI3145
V\u8c37
p3146
sI3146
V\u8c41
p3147
sI3147
V\u8c46
p3148
sI3148
V\u8c4c
p3149
sI3149
V\u8c61
p3150
sI3150
V\u8c62
p3151
sI3151
V\u8c6a
p3152
sI3152
V\u8c6b
p3153
sI3153
V\u8c79
p3154
sI3154
V\u8c7a
p3155
sI3155
V\u8c89
p3156
sI3156
V\u8c8c
p3157
sI3157
V\u8d1d
p3158
sI3158
V\u8d1e
p3159
sI3159
V\u8d1f
p3160
sI3160
V\u8d21
p3161
sI3161
V\u8d22
p3162
sI3162
V\u8d23
p3163
sI3163
V\u8d24
p3164
sI3164
V\u8d25
p3165
sI3165
V\u8d26
p3166
sI3166
V\u8d27
p3167
sI3167
V\u8d28
p3168
sI3168
V\u8d29
p3169
sI3169
V\u8d2a
p3170
sI3170
V\u8d2b
p3171
sI3171
V\u8d2c
p3172
sI3172
V\u8d2d
p3173
sI3173
V\u8d2e
p3174
sI3174
V\u8d2f
p3175
sI3175
V\u8d30
p3176
sI3176
V\u8d31
p3177
sI3177
V\u8d34
p3178
sI3178
V\u8d35
p3179
sI3179
V\u8d37
p3180
sI3180
V\u8d38
p3181
sI3181
V\u8d39
p3182
sI3182
V\u8d3a
p3183
sI3183
V\u8d3c
p3184
sI3184
V\u8d3e
p3185
sI3185
V\u8d3f
p3186
sI3186
V\u8d41
p3187
sI3187
V\u8d42
p3188
sI3188
V\u8d43
p3189
sI3189
V\u8d44
p3190
sI3190
V\u8d4a
p3191
sI3191
V\u8d4b
p3192
sI3192
V\u8d4c
p3193
sI3193
V\u8d4e
p3194
sI3194
V\u8d4f
p3195
sI3195
V\u8d50
p3196
sI3196
V\u8d54
p3197
sI3197
V\u8d56
p3198
sI3198
V\u8d58
p3199
sI3199
V\u8d5a
p3200
sI3200
V\u8d5b
p3201
sI3201
V\u8d5e
p3202
sI3202
V\u8d60
p3203
sI3203
V\u8d61
p3204
sI3204
V\u8d62
p3205
sI3205
V\u8d63
p3206
sI3206
V\u8d64
p3207
sI3207
V\u8d66
p3208
sI3208
V\u8d6b
p3209
sI3209
V\u8d70
p3210
sI3210
V\u8d74
p3211
sI3211
V\u8d75
p3212
sI3212
V\u8d76
p3213
sI3213
V\u8d77
p3214
sI3214
V\u8d81
p3215
sI3215
V\u8d85
p3216
sI3216
V\u8d8a
p3217
sI3217
V\u8d8b
p3218
sI3218
V\u8d9f
p3219
sI3219
V\u8da3
p3220
sI3220
V\u8db3
p3221
sI3221
V\u8db4
p3222
sI3222
V\u8dbe
p3223
sI3223
V\u8dc3
p3224
sI3224
V\u8dcb
p3225
sI3225
V\u8dcc
p3226
sI3226
V\u8dd1
p3227
sI3227
V\u8ddd
p3228
sI3228
V\u8ddf
p3229
sI3229
V\u8de8
p3230
sI3230
V\u8dea
p3231
sI3231
V\u8def
p3232
sI3232
V\u8df3
p3233
sI3233
V\u8df5
p3234
sI3234
V\u8dfa
p3235
sI3235
V\u8e0a
p3236
sI3236
V\u8e0c
p3237
sI3237
V\u8e0f
p3238
sI3238
V\u8e1e
p3239
sI3239
V\u8e22
p3240
sI3240
V\u8e29
p3241
sI3241
V\u8e2a
p3242
sI3242
V\u8e44
p3243
sI3243
V\u8e48
p3244
sI3244
V\u8e4b
p3245
sI3245
V\u8e66
p3246
sI3246
V\u8e6c
p3247
sI3247
V\u8e6d
p3248
sI3248
V\u8e72
p3249
sI3249
V\u8e7f
p3250
sI3250
V\u8e81
p3251
sI3251
V\u8e87
p3252
sI3252
V\u8eab
p3253
sI3253
V\u8eac
p3254
sI3254
V\u8eaf
p3255
sI3255
V\u8eb2
p3256
sI3256
V\u8eba
p3257
sI3257
V\u8f66
p3258
sI3258
V\u8f67
p3259
sI3259
V\u8f68
p3260
sI3260
V\u8f69
p3261
sI3261
V\u8f6c
p3262
sI3262
V\u8f6e
p3263
sI3263
V\u8f6f
p3264
sI3264
V\u8f70
p3265
sI3265
V\u8f74
p3266
sI3266
V\u8f7b
p3267
sI3267
V\u8f7d
p3268
sI3268
V\u8f7f
p3269
sI3269
V\u8f83
p3270
sI3270
V\u8f85
p3271
sI3271
V\u8f86
p3272
sI3272
V\u8f88
p3273
sI3273
V\u8f89
p3274
sI3274
V\u8f8a
p3275
sI3275
V\u8f90
p3276
sI3276
V\u8f91
p3277
sI3277
V\u8f93
p3278
sI3278
V\u8f95
p3279
sI3279
V\u8f96
p3280
sI3280
V\u8f97
p3281
sI3281
V\u8f99
p3282
sI3282
V\u8f9b
p3283
sI3283
V\u8f9c
p3284
sI3284
V\u8f9e
p3285
sI3285
V\u8f9f
p3286
sI3286
V\u8fa3
p3287
sI3287
V\u8fa8
p3288
sI3288
V\u8fa9
p3289
sI3289
V\u8fab
p3290
sI3290
V\u8fb0
p3291
sI3291
V\u8fb1
p3292
sI3292
V\u8fb9
p3293
sI3293
V\u8fbd
p3294
sI3294
V\u8fbe
p3295
sI3295
V\u8fc1
p3296
sI3296
V\u8fc2
p3297
sI3297
V\u8fc4
p3298
sI3298
V\u8fc5
p3299
sI3299
V\u8fc7
p3300
sI3300
V\u8fc8
p3301
sI3301
V\u8fce
p3302
sI3302
V\u8fd0
p3303
sI3303
V\u8fd1
p3304
sI3304
V\u8fd4
p3305
sI3305
V\u8fd8
p3306
sI3306
V\u8fd9
p3307
sI3307
V\u8fdb
p3308
sI3308
V\u8fdc
p3309
sI3309
V\u8fdd
p3310
sI3310
V\u8fde
p3311
sI3311
V\u8fdf
p3312
sI3312
V\u8fe2
p3313
sI3313
V\u8fea
p3314
sI3314
V\u8feb
p3315
sI3315
V\u8fed
p3316
sI3316
V\u8ff0
p3317
sI3317
V\u8ff7
p3318
sI3318
V\u8ff8
p3319
sI3319
V\u8ff9
p3320
sI3320
V\u8ffd
p3321
sI3321
V\u9000
p3322
sI3322
V\u9001
p3323
sI3323
V\u9002
p3324
sI3324
V\u9003
p3325
sI3325
V\u9006
p3326
sI3326
V\u9009
p3327
sI3327
V\u900a
p3328
sI3328
V\u900f
p3329
sI3329
V\u9010
p3330
sI3330
V\u9012
p3331
sI3331
V\u9014
p3332
sI3332
V\u9017
p3333
sI3333
V\u901a
p3334
sI3334
V\u901b
p3335
sI3335
V\u901d
p3336
sI3336
V\u901e
p3337
sI3337
V\u901f
p3338
sI3338
V\u9020
p3339
sI3339
V\u9022
p3340
sI3340
V\u902e
p3341
sI3341
V\u9038
p3342
sI3342
V\u903b
p3343
sI3343
V\u903c
p3344
sI3344
V\u903e
p3345
sI3345
V\u9041
p3346
sI3346
V\u9042
p3347
sI3347
V\u9047
p3348
sI3348
V\u904d
p3349
sI3349
V\u904f
p3350
sI3350
V\u9053
p3351
sI3351
V\u9057
p3352
sI3352
V\u9063
p3353
sI3353
V\u9065
p3354
sI3354
V\u906d
p3355
sI3355
V\u906e
p3356
sI3356
V\u9075
p3357
sI3357
V\u907f
p3358
sI3358
V\u9080
p3359
sI3359
V\u9091
p3360
sI3360
V\u9093
p3361
sI3361
V\u90a2
p3362
sI3362
V\u90a3
p3363
sI3363
V\u90a6
p3364
sI3364
V\u90aa
p3365
sI3365
V\u90ae
p3366
sI3366
V\u90af
p3367
sI3367
V\u90b1
p3368
sI3368
V\u90b5
p3369
sI3369
V\u90b9
p3370
sI3370
V\u90bb
p3371
sI3371
V\u90c1
p3372
sI3372
V\u90ca
p3373
sI3373
V\u90ce
p3374
sI3374
V\u90d1
p3375
sI3375
V\u90dd
p3376
sI3376
V\u90e1
p3377
sI3377
V\u90e7
p3378
sI3378
V\u90e8
p3379
sI3379
V\u90ed
p3380
sI3380
V\u90f4
p3381
sI3381
V\u90f8
p3382
sI3382
V\u90fd
p3383
sI3383
V\u9102
p3384
sI3384
V\u9119
p3385
sI3385
V\u9149
p3386
sI3386
V\u914b
p3387
sI3387
V\u914c
p3388
sI3388
V\u914d
p3389
sI3389
V\u9152
p3390
sI3390
V\u9157
p3391
sI3391
V\u915a
p3392
sI3392
V\u915d
p3393
sI3393
V\u915e
p3394
sI3394
V\u9163
p3395
sI3395
V\u9165
p3396
sI3396
V\u916a
p3397
sI3397
V\u916c
p3398
sI3398
V\u916e
p3399
sI3399
V\u9171
p3400
sI3400
V\u9175
p3401
sI3401
V\u9176
p3402
sI3402
V\u9177
p3403
sI3403
V\u9178
p3404
sI3404
V\u917f
p3405
sI3405
V\u9187
p3406
sI3406
V\u9189
p3407
sI3407
V\u918b
p3408
sI3408
V\u9192
p3409
sI3409
V\u919a
p3410
sI3410
V\u919b
p3411
sI3411
V\u91c7
p3412
sI3412
V\u91c9
p3413
sI3413
V\u91ca
p3414
sI3414
V\u91cc
p3415
sI3415
V\u91cd
p3416
sI3416
V\u91ce
p3417
sI3417
V\u91cf
p3418
sI3418
V\u91d1
p3419
sI3419
V\u91dc
p3420
sI3420
V\u9274
p3421
sI3421
V\u9488
p3422
sI3422
V\u9489
p3423
sI3423
V\u948e
p3424
sI3424
V\u9492
p3425
sI3425
V\u9493
p3426
sI3426
V\u9499
p3427
sI3427
V\u949d
p3428
sI3428
V\u949e
p3429
sI3429
V\u949f
p3430
sI3430
V\u94a0
p3431
sI3431
V\u94a1
p3432
sI3432
V\u94a2
p3433
sI3433
V\u94a5
p3434
sI3434
V\u94a6
p3435
sI3435
V\u94a7
p3436
sI3436
V\u94a8
p3437
sI3437
V\u94a9
p3438
sI3438
V\u94ae
p3439
sI3439
V\u94b1
p3440
sI3440
V\u94b3
p3441
sI3441
V\u94b5
p3442
sI3442
V\u94bb
p3443
sI3443
V\u94be
p3444
sI3444
V\u94c0
p3445
sI3445
V\u94c1
p3446
sI3446
V\u94c2
p3447
sI3447
V\u94c3
p3448
sI3448
V\u94c5
p3449
sI3449
V\u94c6
p3450
sI3450
V\u94dc
p3451
sI3451
V\u94dd
p3452
sI3452
V\u94e1
p3453
sI3453
V\u94e3
p3454
sI3454
V\u94ec
p3455
sI3455
V\u94ed
p3456
sI3456
V\u94f0
p3457
sI3457
V\u94f1
p3458
sI3458
V\u94f2
p3459
sI3459
V\u94f6
p3460
sI3460
V\u94f8
p3461
sI3461
V\u94fa
p3462
sI3462
V\u94fe
p3463
sI3463
V\u9500
p3464
sI3464
V\u9501
p3465
sI3465
V\u9504
p3466
sI3466
V\u9505
p3467
sI3467
V\u9508
p3468
sI3468
V\u950b
p3469
sI3469
V\u950c
p3470
sI3470
V\u9510
p3471
sI3471
V\u9511
p3472
sI3472
V\u9517
p3473
sI3473
V\u9519
p3474
sI3474
V\u951a
p3475
sI3475
V\u9521
p3476
sI3476
V\u9523
p3477
sI3477
V\u9524
p3478
sI3478
V\u9525
p3479
sI3479
V\u9526
p3480
sI3480
V\u9528
p3481
sI3481
V\u952d
p3482
sI3482
V\u952e
p3483
sI3483
V\u952f
p3484
sI3484
V\u9530
p3485
sI3485
V\u9539
p3486
sI3486
V\u953b
p3487
sI3487
V\u9540
p3488
sI3488
V\u9541
p3489
sI3489
V\u9547
p3490
sI3490
V\u954a
p3491
sI3491
V\u954d
p3492
sI3492
V\u9550
p3493
sI3493
V\u9551
p3494
sI3494
V\u955c
p3495
sI3495
V\u9563
p3496
sI3496
V\u956d
p3497
sI3497
V\u9570
p3498
sI3498
V\u9576
p3499
sI3499
V\u957f
p3500
sI3500
V\u95e8
p3501
sI3501
V\u95ea
p3502
sI3502
V\u95ed
p3503
sI3503
V\u95ee
p3504
sI3504
V\u95ef
p3505
sI3505
V\u95f0
p3506
sI3506
V\u95f2
p3507
sI3507
V\u95f4
p3508
sI3508
V\u95f7
p3509
sI3509
V\u95f8
p3510
sI3510
V\u95f9
p3511
sI3511
V\u95fa
p3512
sI3512
V\u95fb
p3513
sI3513
V\u95fd
p3514
sI3514
V\u9600
p3515
sI3515
V\u9601
p3516
sI3516
V\u9602
p3517
sI3517
V\u9605
p3518
sI3518
V\u9609
p3519
sI3519
V\u960e
p3520
sI3520
V\u9610
p3521
sI3521
V\u9611
p3522
sI3522
V\u9614
p3523
sI3523
V\u961c
p3524
sI3524
V\u961f
p3525
sI3525
V\u962e
p3526
sI3526
V\u9632
p3527
sI3527
V\u9633
p3528
sI3528
V\u9634
p3529
sI3529
V\u9635
p3530
sI3530
V\u9636
p3531
sI3531
V\u963b
p3532
sI3532
V\u963f
p3533
sI3533
V\u9640
p3534
sI3534
V\u9644
p3535
sI3535
V\u9645
p3536
sI3536
V\u9646
p3537
sI3537
V\u9647
p3538
sI3538
V\u9648
p3539
sI3539
V\u964b
p3540
sI3540
V\u964c
p3541
sI3541
V\u964d
p3542
sI3542
V\u9650
p3543
sI3543
V\u9655
p3544
sI3544
V\u965b
p3545
sI3545
V\u9661
p3546
sI3546
V\u9662
p3547
sI3547
V\u9664
p3548
sI3548
V\u9668
p3549
sI3549
V\u9669
p3550
sI3550
V\u966a
p3551
sI3551
V\u9675
p3552
sI3552
V\u9676
p3553
sI3553
V\u9677
p3554
sI3554
V\u9685
p3555
sI3555
V\u9686
p3556
sI3556
V\u968b
p3557
sI3557
V\u968f
p3558
sI3558
V\u9690
p3559
sI3559
V\u9694
p3560
sI3560
V\u9698
p3561
sI3561
V\u9699
p3562
sI3562
V\u969c
p3563
sI3563
V\u96a7
p3564
sI3564
V\u96b6
p3565
sI3565
V\u96be
p3566
sI3566
V\u96c0
p3567
sI3567
V\u96c1
p3568
sI3568
V\u96c4
p3569
sI3569
V\u96c5
p3570
sI3570
V\u96c6
p3571
sI3571
V\u96c7
p3572
sI3572
V\u96cc
p3573
sI3573
V\u96cd
p3574
sI3574
V\u96cf
p3575
sI3575
V\u96d5
p3576
sI3576
V\u96e8
p3577
sI3577
V\u96ea
p3578
sI3578
V\u96f6
p3579
sI3579
V\u96f7
p3580
sI3580
V\u96f9
p3581
sI3581
V\u96fe
p3582
sI3582
V\u9700
p3583
sI3583
V\u9704
p3584
sI3584
V\u9707
p3585
sI3585
V\u9709
p3586
sI3586
V\u970d
p3587
sI3587
V\u9713
p3588
sI3588
V\u9716
p3589
sI3589
V\u971c
p3590
sI3590
V\u971e
p3591
sI3591
V\u9732
p3592
sI3592
V\u9738
p3593
sI3593
V\u9739
p3594
sI3594
V\u9752
p3595
sI3595
V\u9756
p3596
sI3596
V\u9759
p3597
sI3597
V\u975b
p3598
sI3598
V\u975e
p3599
sI3599
V\u9760
p3600
sI3600
V\u9761
p3601
sI3601
V\u9762
p3602
sI3602
V\u9769
p3603
sI3603
V\u9773
p3604
sI3604
V\u9774
p3605
sI3605
V\u9776
p3606
sI3606
V\u978b
p3607
sI3607
V\u978d
p3608
sI3608
V\u9798
p3609
sI3609
V\u97a0
p3610
sI3610
V\u97ad
p3611
sI3611
V\u97e6
p3612
sI3612
V\u97e7
p3613
sI3613
V\u97e9
p3614
sI3614
V\u97ed
p3615
sI3615
V\u97f3
p3616
sI3616
V\u97f5
p3617
sI3617
V\u97f6
p3618
sI3618
V\u9875
p3619
sI3619
V\u9876
p3620
sI3620
V\u9877
p3621
sI3621
V\u9879
p3622
sI3622
V\u987a
p3623
sI3623
V\u987b
p3624
sI3624
V\u987d
p3625
sI3625
V\u987e
p3626
sI3626
V\u987f
p3627
sI3627
V\u9881
p3628
sI3628
V\u9882
p3629
sI3629
V\u9884
p3630
sI3630
V\u9885
p3631
sI3631
V\u9886
p3632
sI3632
V\u9887
p3633
sI3633
V\u9888
p3634
sI3634
V\u988a
p3635
sI3635
V\u9890
p3636
sI3636
V\u9891
p3637
sI3637
V\u9893
p3638
sI3638
V\u9896
p3639
sI3639
V\u9897
p3640
sI3640
V\u9898
p3641
sI3641
V\u989c
p3642
sI3642
V\u989d
p3643
sI3643
V\u98a0
p3644
sI3644
V\u98a4
p3645
sI3645
V\u98a7
p3646
sI3646
V\u98ce
p3647
sI3647
V\u98d8
p3648
sI3648
V\u98de
p3649
sI3649
V\u98df
p3650
sI3650
V\u9910
p3651
sI3651
V\u9965
p3652
sI3652
V\u996d
p3653
sI3653
V\u996e
p3654
sI3654
V\u996f
p3655
sI3655
V\u9970
p3656
sI3656
V\u9971
p3657
sI3657
V\u9972
p3658
sI3658
V\u9975
p3659
sI3659
V\u9976
p3660
sI3660
V\u997a
p3661
sI3661
V\u997c
p3662
sI3662
V\u997f
p3663
sI3663
V\u9981
p3664
sI3664
V\u9985
p3665
sI3665
V\u9986
p3666
sI3666
V\u9988
p3667
sI3667
V\u998b
p3668
sI3668
V\u998f
p3669
sI3669
V\u9992
p3670
sI3670
V\u9996
p3671
sI3671
V\u9999
p3672
sI3672
V\u9a6c
p3673
sI3673
V\u9a6d
p3674
sI3674
V\u9a6e
p3675
sI3675
V\u9a6f
p3676
sI3676
V\u9a70
p3677
sI3677
V\u9a71
p3678
sI3678
V\u9a73
p3679
sI3679
V\u9a74
p3680
sI3680
V\u9a76
p3681
sI3681
V\u9a79
p3682
sI3682
V\u9a7b
p3683
sI3683
V\u9a7c
p3684
sI3684
V\u9a7e
p3685
sI3685
V\u9a82
p3686
sI3686
V\u9a84
p3687
sI3687
V\u9a86
p3688
sI3688
V\u9a87
p3689
sI3689
V\u9a8b
p3690
sI3690
V\u9a8c
p3691
sI3691
V\u9a8f
p3692
sI3692
V\u9a91
p3693
sI3693
V\u9a97
p3694
sI3694
V\u9a9a
p3695
sI3695
V\u9aa1
p3696
sI3696
V\u9aa4
p3697
sI3697
V\u9aa8
p3698
sI3698
V\u9ab8
p3699
sI3699
V\u9ad3
p3700
sI3700
V\u9ad8
p3701
sI3701
V\u9b03
p3702
sI3702
V\u9b3c
p3703
sI3703
V\u9b41
p3704
sI3704
V\u9b42
p3705
sI3705
V\u9b44
p3706
sI3706
V\u9b4f
p3707
sI3707
V\u9b54
p3708
sI3708
V\u9c7c
p3709
sI3709
V\u9c81
p3710
sI3710
V\u9c8d
p3711
sI3711
V\u9c9c
p3712
sI3712
V\u9ca4
p3713
sI3713
V\u9cb8
p3714
sI3714
V\u9cc3
p3715
sI3715
V\u9cd6
p3716
sI3716
V\u9cde
p3717
sI3717
V\u9e1f
p3718
sI3718
V\u9e21
p3719
sI3719
V\u9e23
p3720
sI3720
V\u9e25
p3721
sI3721
V\u9e26
p3722
sI3722
V\u9e2d
p3723
sI3723
V\u9e2f
p3724
sI3724
V\u9e33
p3725
sI3725
V\u9e35
p3726
sI3726
V\u9e3d
p3727
sI3727
V\u9e3f
p3728
sI3728
V\u9e43
p3729
sI3729
V\u9e45
p3730
sI3730
V\u9e4a
p3731
sI3731
V\u9e4f
p3732
sI3732
V\u9e64
p3733
sI3733
V\u9e70
p3734
sI3734
V\u9e7f
p3735
sI3735
V\u9e93
p3736
sI3736
V\u9ea6
p3737
sI3737
V\u9ebb
p3738
sI3738
V\u9ec4
p3739
sI3739
V\u9ecd
p3740
sI3740
V\u9ece
p3741
sI3741
V\u9ed1
p3742
sI3742
V\u9ed4
p3743
sI3743
V\u9ed8
p3744
sI3744
V\u9f0e
p3745
sI3745
V\u9f13
p3746
sI3746
V\u9f20
p3747
sI3747
V\u9f3b
p3748
sI3748
V\u9f50
p3749
sI3749
V\u9f7f
p3750
sI3750
V\u9f84
p3751
sI3751
V\u9f8b
p3752
sI3752
V\u9f99
p3753
sI3753
V\u9f9a
p3754
sI3754
V\u9f9f
p3755
s.